.NOLIST
#define     equ             .equ
#define     EQU             .equ
#define     END             .end
.LIST
#define bcall(xxxx)     rst 28h    \ .dw xxxx
#define bcallz(xxxx)    jr nz,$+5  \ rst 28h  \ .dw xxxx
#define bcallnz(xxxx)   jr  z,$+5  \ rst 28h  \ .dw xxxx
#define bcallc(xxxx)    jr  nc,$+5 \ rst 28h  \ .dw xxxx
#define bcallnc(xxxx)   jr  c,$+5  \ rst 28h  \ .dw xxxx
#define bjump(xxxx)     call 50h   \ .dw xxxx
pagedBuf               equ     983Ah
iMathPtr5              equ     84DBh
pagedCount             equ     9834h
arcInfo                equ     83EEh
_JErrorNo              equ     4000h
_RunIndicOff           equ     4570h
_homeup                equ     4558h
_ClrScrnFull           equ     4546h
contrast               equ     8447h
timer1max              equ     8A3Bh
timer2                 equ     8A3Ch
timer2max              equ     8A3Dh
timer3                 equ     8A3Eh
statVars               equ     8A3Ah
_GrBufClr              equ     4BD0h
penCol                 equ     86D7h
penRow                 equ     86D8h
_VPutS                 equ     4561h
_GetCSC                equ     4018h
saveSScreen            equ     86ECh
appBackUpScreen        equ     9872h
_BufClr                equ     5074h
flashByte1             equ     9867h
plotSScreen            equ     9340h
_SetXXXXOP2            equ     4792h
_OP2ToOP1              equ     4156h
_DispOP1A              equ     4BF7h

.org        9D93h

 9D93   BB6D        .db 0BBh, 6Dh
 9D95   AF        xor  a       
 9D96   3017      jr   nc, Label1

Str1:
 9D98             .db  "Chambers - A Roguelike", 00h

Label1:
 9DAF   FDCB0DD6  set  2, (iy+0Dh)
 9DB3   F3        di           
 9DB4   DB06      in   a, (06h)  
 9DB6   F5        push af      
 9DB7   DB02      in   a, (02h)  
 9DB9   17        rla          
 9DBA   DAAB9E    jp   c, Label5
 9DBD   CDC09D    call Label6

Label6:
 9DC0   E1        pop  hl      
 9DC1   111200    ld   de, 0012h
 9DC4   19        add  hl, de  
 9DC5   EB        ex   de, hl  
 9DC6   2158E1    ld   hl, Str2
 9DC9   010B00    ld   bc, 000Bh
 9DCC   09        add  hl, bc  
 9DCD   73        ld   (hl), e 
 9DCE   23        inc  hl      
 9DCF   72        ld   (hl), d 
 9DD0   187F      jr   Label7

Label8:
 9DD2   3E1B      ld   a, 1Bh
 9DD4   D306      out  (06h), a  
 9DD6   219250    ld   hl, 05092h
 9DD9   5E        ld   e, (hl) 
 9DDA   23        inc  hl      
 9DDB   56        ld   d, (hl) 
 9DDC   23        inc  hl      
 9DDD   7E        ld   a, (hl) 
 9DDE   D660      sub  60h
 9DE0   D306      out  (06h), a  
 9DE2   EB        ex   de, hl  
 9DE3   3ECC      ld   a, 0CCh
 9DE5   01FFFF    ld   bc, 0FFFFh
 9DE8   EDB1      cpir         
 9DEA   5E        ld   e, (hl) 
 9DEB   23        inc  hl      
 9DEC   56        ld   d, (hl) 
 9DED   D5        push de      
 9DEE   DDE1      pop  ix      
 9DF0   219898    ld   hl, 09898h
 9DF3   36C3      ld   (hl), 0C3h
 9DF5   23        inc  hl      
 9DF6   11339E    ld   de, Str3
 9DF9   73        ld   (hl), e 
 9DFA   23        inc  hl      
 9DFB   72        ld   (hl), d 
 9DFC   213A98    ld   hl, pagedBuf
 9DFF   3698      ld   (hl), 98h
 9E01   113B98    ld   de, 0983Bh
 9E04   013100    ld   bc, 0031h
 9E07   EDB0      ldir         
 9E09   ED73DB84  ld   (iMathPtr5), sp 
 9E0D   2ADB84    ld   hl, (iMathPtr5) 
 9E10   11009A    ld   de, 09A00h
 9E13   013200    ld   bc, 0032h
 9E16   EDB0      ldir         
 9E18   ED5BDB84  ld   de, (iMathPtr5) 
 9E1C   21F4FF    ld   hl, 0FFF4h
 9E1F   19        add  hl, de  
 9E20   22DB84    ld   (iMathPtr5), hl 
 9E23   FD213100  ld   iy, 0031h
 9E27   3E32      ld   a, 32h
 9E29   323498    ld   (pagedCount), a  
 9E2C   3E08      ld   a, 08h
 9E2E   32EE83    ld   (arcInfo), a  
 9E31   DDE9      jp   (ix)    

Str3:
 9E33             .db  0FDh
 9E34             .db  "!", 0F0h, 89h, 2Ah, 0DBh, 84h, 11h, 0Ch, 00h, 19h, 0F9h, 0EBh
 9E40             .db  "!", 00h, 9Ah, 01h
 9E44             .db  "2", 00h, 0EDh, 0B0h
 9E48             .db  ">", 07h, 0D3h, 05h
 9E4C             .db  ">", 1Fh, 0D3h, 06h, 0C9h

Label7:
 9E51   CDD29D    call Label8
 9E54   CD579E    call Label9

Label9:
 9E57   E1        pop  hl      
 9E58   111200    ld   de, 0012h
 9E5B   19        add  hl, de  
 9E5C   EB        ex   de, hl  
 9E5D   2158E1    ld   hl, Str2
 9E60   011C00    ld   bc, 001Ch
 9E63   09        add  hl, bc  
 9E64   73        ld   (hl), e 
 9E65   23        inc  hl      
 9E66   72        ld   (hl), d 
 9E67   1830      jr   Label10

Label12:
 9E69   210040    ld   hl, _JErrorNo

Label11:
 9E6C   3EED      ld   a, 0EDh
 9E6E   EDB1      cpir         
 9E70   3E56      ld   a, 56h
 9E72   EDA1      cpi          
 9E74   20F6      jr   nz, Label11
 9E76   3EF3      ld   a, 0F3h
 9E78   EDA1      cpi          
 9E7A   20F0      jr   nz, Label11
 9E7C   3ED3      ld   a, 0D3h
 9E7E   EDA1      cpi          
 9E80   20EA      jr   nz, Label11
 9E82   3E16      ld   a, 16h
 9E84   EDA1      cpi          
 9E86   20E4      jr   nz, Label11
 9E88   3EF3      ld   a, 0F3h
 9E8A   EDA1      cpi          
 9E8C   20DE      jr   nz, Label11
 9E8E   3EC9      ld   a, 0C9h
 9E90   EDA1      cpi          
 9E92   20D8      jr   nz, Label11
 9E94   11F7FF    ld   de, 0FFF7h
 9E97   19        add  hl, de  
 9E98   C9        ret          

Label10:
 9E99   CD699E    call Label12
 9E9C   AF        xor  a       
 9E9D   11A29E    ld   de, Str4
 9EA0   D5        push de      
 9EA1   E9        jp   (hl)    

Str4:
 9EA2             .db  0EFh
 9EA3             .db  "<O", 0F1h, 0D3h, 06h, 0C3h, 0C7h, 9Eh

Label5:
 9EAB   3E83      ld   a, 83h
 9EAD   D306      out  (06h), a  
 9EAF   210040    ld   hl, _JErrorNo
 9EB2   1100C0    ld   de, Str5
 9EB5   44        ld   b, h    
 9EB6   4D        ld   c, l    

Label14:
 9EB7   1A        ld   a, (de) 
 9EB8   EDA0      ldi          
 9EBA   2B        dec  hl      
 9EBB   77        ld   (hl), a 
 9EBC   23        inc  hl      
 9EBD   EAB79E    jp   pe, Label14
 9EC0   3E03      ld   a, 03h
 9EC2   D305      out  (05h), a  
 9EC4   F1        pop  af      
 9EC5   D306      out  (06h), a  
 9EC7   FB        ei           
 9EC8   DB02      in   a, (02h)  
 9ECA   17        rla          
 9ECB   9F        sbc  a, a    
 9ECC   D320      out  (20h), a  
 9ECE   6F        ld   l, a    
 9ECF   67        ld   h, a    
 9ED0   EF7045    bcall(_RunIndicOff)     
 9ED3   FDCB00AE  res  5, (iy+00h)
 9ED7   EF5845    bcall(_homeup)     
 9EDA   EF4645    bcall(_ClrScrnFull)     
 9EDD   FDCB14FE  set  7, (iy+14h)
 9EE1   3A4784    ld   a, (contrast)  
 9EE4   C618      add  a, 18h
 9EE6   6F        ld   l, a    
 9EE7   2600      ld   h, 00h
 9EE9   7D        ld   a, l    
 9EEA   324A8A    ld   (08A4Ah), a  
 9EED   210100    ld   hl, 0001h
 9EF0   7D        ld   a, l    
 9EF1   325C8A    ld   (08A5Ch), a  

Label50:
 9EF4   210100    ld   hl, 0001h
 9EF7   7D        ld   a, l    
 9EF8   323B8A    ld   (timer1max), a  
 9EFB   210000    ld   hl, 0000h
 9EFE   7D        ld   a, l    
 9EFF   323C8A    ld   (timer2), a  
 9F02   210500    ld   hl, 0005h
 9F05   7D        ld   a, l    
 9F06   323D8A    ld   (timer2max), a  
 9F09   CDACDE    call Label15
 9F0C   2600      ld   h, 00h
 9F0E   7D        ld   a, l    
 9F0F   E603      and  03h
 9F11   6F        ld   l, a    
 9F12   23        inc  hl      
 9F13   7D        ld   a, l    
 9F14   323E8A    ld   (timer3), a  
 9F17   210000    ld   hl, 0000h
 9F1A   7D        ld   a, l    
 9F1B   323F8A    ld   (08A3Fh), a  
 9F1E   216200    ld   hl, 0062h
 9F21   7D        ld   a, l    
 9F22   32438A    ld   (08A43h), a  
 9F25   210100    ld   hl, 0001h
 9F28   7D        ld   a, l    
 9F29   32468A    ld   (08A46h), a  
 9F2C   210000    ld   hl, 0000h
 9F2F   7D        ld   a, l    
 9F30   32478A    ld   (08A47h), a  
 9F33   210000    ld   hl, 0000h
 9F36   7D        ld   a, l    
 9F37   32578A    ld   (08A57h), a  
 9F3A   210000    ld   hl, 0000h
 9F3D   7D        ld   a, l    
 9F3E   32588A    ld   (08A58h), a  
 9F41   210000    ld   hl, 0000h
 9F44   7D        ld   a, l    
 9F45   32598A    ld   (08A59h), a  
 9F48   210000    ld   hl, 0000h
 9F4B   7D        ld   a, l    
 9F4C   325D8A    ld   (08A5Dh), a  
 9F4F   210800    ld   hl, 0008h
 9F52   7D        ld   a, l    
 9F53   324C8A    ld   (08A4Ch), a  
 9F56   CDACDE    call Label15
 9F59   110900    ld   de, 0009h
 9F5C   CD6ADE    call Label16
 9F5F   23        inc  hl      
 9F60   7D        ld   a, l    
 9F61   324D8A    ld   (08A4Dh), a  
 9F64   211400    ld   hl, 0014h
 9F67   1804      jr   Label17

Label19:
 9F69   2AE889    ld   hl, (089E8h) 
 9F6C   23        inc  hl      

Label17:
 9F6D   22E889    ld   (089E8h), hl 
 9F70   EB        ex   de, hl  
 9F71   211C00    ld   hl, 001Ch
 9F74   B7        or   a       
 9F75   ED52      sbc  hl, de  
 9F77   DA899F    jp   c, Label18
 9F7A   210000    ld   hl, 0000h
 9F7D   E5        push hl      
 9F7E   2AE889    ld   hl, (089E8h) 
 9F81   113A8A    ld   de, statVars
 9F84   19        add  hl, de  
 9F85   D1        pop  de      
 9F86   73        ld   (hl), e 
 9F87   18E0      jr   Label19

Label18:
 9F89   2A5C8A    ld   hl, (08A5Ch) 
 9F8C   AF        xor  a       
 9F8D   67        ld   h, a    
 9F8E   B5        or   l       
 9F8F   CAA0A1    jp   z, Label20
 9F92   EFD04B    bcall(_GrBufClr)     
 9F95   210100    ld   hl, 0001h
 9F98   22D786    ld   (penCol), hl 
 9F9B   210200    ld   hl, 0002h
 9F9E   7D        ld   a, l    
 9F9F   32D886    ld   (penRow), a  
 9FA2   2104E9    ld   hl, Str6
 9FA5   EF6145    bcall(_VPutS)     
 9FA8   210100    ld   hl, 0001h
 9FAB   22D786    ld   (penCol), hl 
 9FAE   210A00    ld   hl, 000Ah
 9FB1   7D        ld   a, l    
 9FB2   32D886    ld   (penRow), a  
 9FB5   2114E9    ld   hl, Str7
 9FB8   EF6145    bcall(_VPutS)     
 9FBB   210100    ld   hl, 0001h
 9FBE   22D786    ld   (penCol), hl 
 9FC1   211200    ld   hl, 0012h
 9FC4   7D        ld   a, l    
 9FC5   32D886    ld   (penRow), a  
 9FC8   212BE9    ld   hl, Str8
 9FCB   EF6145    bcall(_VPutS)     
 9FCE   210100    ld   hl, 0001h
 9FD1   22D786    ld   (penCol), hl 
 9FD4   211A00    ld   hl, 001Ah
 9FD7   7D        ld   a, l    
 9FD8   32D886    ld   (penRow), a  
 9FDB   2139E9    ld   hl, Str9
 9FDE   EF6145    bcall(_VPutS)     
 9FE1   210100    ld   hl, 0001h
 9FE4   22D786    ld   (penCol), hl 
 9FE7   212200    ld   hl, 0022h
 9FEA   7D        ld   a, l    
 9FEB   32D886    ld   (penRow), a  
 9FEE   2144E9    ld   hl, Str10
 9FF1   EF6145    bcall(_VPutS)     
 9FF4   210100    ld   hl, 0001h
 9FF7   22D786    ld   (penCol), hl 
 9FFA   213200    ld   hl, 0032h
 9FFD   7D        ld   a, l    
 9FFE   32D886    ld   (penRow), a  
 A001   21E8E6    ld   hl, Str11
 A004   EF6145    bcall(_VPutS)     
 A007   CDBADE    call Label21
 A00A   CD99D5    call Label22
 A00D   2A3F8A    ld   hl, (08A3Fh) 
 A010   2600      ld   h, 00h
 A012   7D        ld   a, l    
 A013   D60F      sub  0Fh
 A015   B4        or   h       
 A016   D601      sub  01h
 A018   ED62      sbc  hl, hl  
 A01A   23        inc  hl      
 A01B   7C        ld   a, h    
 A01C   B5        or   l       
 A01D   CA75A0    jp   z, Label23
 A020   EFD04B    bcall(_GrBufClr)     
 A023   210100    ld   hl, 0001h
 A026   22D786    ld   (penCol), hl 
 A029   210200    ld   hl, 0002h
 A02C   7D        ld   a, l    
 A02D   32D886    ld   (penRow), a  
 A030   2153E9    ld   hl, Str12
 A033   EF6145    bcall(_VPutS)     
 A036   210100    ld   hl, 0001h
 A039   22D786    ld   (penCol), hl 
 A03C   210A00    ld   hl, 000Ah
 A03F   7D        ld   a, l    
 A040   32D886    ld   (penRow), a  
 A043   2167E9    ld   hl, Str13
 A046   EF6145    bcall(_VPutS)     
 A049   210100    ld   hl, 0001h
 A04C   22D786    ld   (penCol), hl 
 A04F   211A00    ld   hl, 001Ah
 A052   7D        ld   a, l    
 A053   32D886    ld   (penRow), a  
 A056   217EE9    ld   hl, Str14
 A059   EF6145    bcall(_VPutS)     
 A05C   210100    ld   hl, 0001h
 A05F   22D786    ld   (penCol), hl 
 A062   213200    ld   hl, 0032h
 A065   7D        ld   a, l    
 A066   32D886    ld   (penRow), a  
 A069   21E8E6    ld   hl, Str11
 A06C   EF6145    bcall(_VPutS)     
 A06F   CDBADE    call Label21
 A072   CD99D5    call Label22

Label23:
 A075   2A3F8A    ld   hl, (08A3Fh) 
 A078   2600      ld   h, 00h
 A07A   7D        ld   a, l    
 A07B   D60F      sub  0Fh
 A07D   B4        or   h       
 A07E   D601      sub  01h
 A080   ED62      sbc  hl, hl  
 A082   23        inc  hl      
 A083   7C        ld   a, h    
 A084   B5        or   l       
 A085   CA03A1    jp   z, Label24
 A088   EFD04B    bcall(_GrBufClr)     
 A08B   210100    ld   hl, 0001h
 A08E   22D786    ld   (penCol), hl 
 A091   210200    ld   hl, 0002h
 A094   7D        ld   a, l    
 A095   32D886    ld   (penRow), a  
 A098   2193E9    ld   hl, Str15
 A09B   EF6145    bcall(_VPutS)     
 A09E   210100    ld   hl, 0001h
 A0A1   22D786    ld   (penCol), hl 
 A0A4   210A00    ld   hl, 000Ah
 A0A7   7D        ld   a, l    
 A0A8   32D886    ld   (penRow), a  
 A0AB   21A9E9    ld   hl, Str16
 A0AE   EF6145    bcall(_VPutS)     
 A0B1   210100    ld   hl, 0001h
 A0B4   22D786    ld   (penCol), hl 
 A0B7   211200    ld   hl, 0012h
 A0BA   7D        ld   a, l    
 A0BB   32D886    ld   (penRow), a  
 A0BE   21BBE9    ld   hl, Str17
 A0C1   EF6145    bcall(_VPutS)     
 A0C4   210100    ld   hl, 0001h
 A0C7   22D786    ld   (penCol), hl 
 A0CA   211A00    ld   hl, 001Ah
 A0CD   7D        ld   a, l    
 A0CE   32D886    ld   (penRow), a  
 A0D1   21C5E9    ld   hl, Str18
 A0D4   EF6145    bcall(_VPutS)     
 A0D7   210100    ld   hl, 0001h
 A0DA   22D786    ld   (penCol), hl 
 A0DD   212200    ld   hl, 0022h
 A0E0   7D        ld   a, l    
 A0E1   32D886    ld   (penRow), a  
 A0E4   21DFE9    ld   hl, Str19
 A0E7   EF6145    bcall(_VPutS)     
 A0EA   210100    ld   hl, 0001h
 A0ED   22D786    ld   (penCol), hl 
 A0F0   213200    ld   hl, 0032h
 A0F3   7D        ld   a, l    
 A0F4   32D886    ld   (penRow), a  
 A0F7   21E8E6    ld   hl, Str11
 A0FA   EF6145    bcall(_VPutS)     
 A0FD   CDBADE    call Label21
 A100   CD99D5    call Label22

Label24:
 A103   2A3F8A    ld   hl, (08A3Fh) 
 A106   2600      ld   h, 00h
 A108   7D        ld   a, l    
 A109   D60F      sub  0Fh
 A10B   B4        or   h       
 A10C   D601      sub  01h
 A10E   ED62      sbc  hl, hl  
 A110   23        inc  hl      
 A111   7C        ld   a, h    
 A112   B5        or   l       
 A113   CAA0A1    jp   z, Label20
 A116   EFD04B    bcall(_GrBufClr)     
 A119   210100    ld   hl, 0001h
 A11C   22D786    ld   (penCol), hl 
 A11F   210200    ld   hl, 0002h
 A122   7D        ld   a, l    
 A123   32D886    ld   (penRow), a  
 A126   21F7E9    ld   hl, Str20
 A129   EF6145    bcall(_VPutS)     
 A12C   210100    ld   hl, 0001h
 A12F   22D786    ld   (penCol), hl 
 A132   210A00    ld   hl, 000Ah
 A135   7D        ld   a, l    
 A136   32D886    ld   (penRow), a  
 A139   2105EA    ld   hl, Str21
 A13C   EF6145    bcall(_VPutS)     
 A13F   210100    ld   hl, 0001h
 A142   22D786    ld   (penCol), hl 
 A145   211200    ld   hl, 0012h
 A148   7D        ld   a, l    
 A149   32D886    ld   (penRow), a  
 A14C   2119EA    ld   hl, Str22
 A14F   EF6145    bcall(_VPutS)     
 A152   210100    ld   hl, 0001h
 A155   22D786    ld   (penCol), hl 
 A158   212200    ld   hl, 0022h
 A15B   7D        ld   a, l    
 A15C   32D886    ld   (penRow), a  
 A15F   2133EA    ld   hl, Str23
 A162   EF6145    bcall(_VPutS)     
 A165   210100    ld   hl, 0001h
 A168   22D786    ld   (penCol), hl 
 A16B   213200    ld   hl, 0032h
 A16E   7D        ld   a, l    
 A16F   32D886    ld   (penRow), a  
 A172   21E8E6    ld   hl, Str11
 A175   EF6145    bcall(_VPutS)     
 A178   CDBADE    call Label21
 A17B   CD99D5    call Label22
 A17E   2A3F8A    ld   hl, (08A3Fh) 
 A181   2600      ld   h, 00h
 A183   7D        ld   a, l    
 A184   D60F      sub  0Fh
 A186   B4        or   h       
 A187   D601      sub  01h
 A189   ED62      sbc  hl, hl  
 A18B   23        inc  hl      
 A18C   7C        ld   a, h    
 A18D   B5        or   l       
 A18E   CA9DA1    jp   z, Label25
 A191   EFD04B    bcall(_GrBufClr)     
 A194   217AE3    ld   hl, Str24
 A197   CDBDDE    call Label26
 A19A   CD99D5    call Label22

Label25:
 A19D   EFD04B    bcall(_GrBufClr)     

Label20:
 A1A0   210000    ld   hl, 0000h
 A1A3   7D        ld   a, l    
 A1A4   325C8A    ld   (08A5Ch), a  
 A1A7   210100    ld   hl, 0001h
 A1AA   7D        ld   a, l    
 A1AB   324B8A    ld   (08A4Bh), a  

Label34:
 A1AE   CD89AB    call Label27

Label45:
 A1B1   2A3F8A    ld   hl, (08A3Fh) 
 A1B4   2600      ld   h, 00h
 A1B6   7D        ld   a, l    
 A1B7   D60F      sub  0Fh
 A1B9   B4        or   h       
 A1BA   D601      sub  01h
 A1BC   ED62      sbc  hl, hl  
 A1BE   23        inc  hl      
 A1BF   E5        push hl      
 A1C0   2A4B8A    ld   hl, (08A4Bh) 
 A1C3   AF        xor  a       
 A1C4   BD        cp   l       
 A1C5   ED62      sbc  hl, hl  
 A1C7   23        inc  hl      
 A1C8   D1        pop  de      
 A1C9   7D        ld   a, l    
 A1CA   A3        and  e       
 A1CB   6F        ld   l, a    
 A1CC   E5        push hl      
 A1CD   2A3D8A    ld   hl, (timer2max) 
 A1D0   2600      ld   h, 00h
 A1D2   7D        ld   a, l    
 A1D3   B4        or   h       
 A1D4   2803      jr   z, Label28
 A1D6   210100    ld   hl, 0001h

Label28:
 A1D9   D1        pop  de      
 A1DA   7D        ld   a, l    
 A1DB   A3        and  e       
 A1DC   6F        ld   l, a    
 A1DD   E5        push hl      
 A1DE   2A588A    ld   hl, (08A58h) 
 A1E1   AF        xor  a       
 A1E2   BD        cp   l       
 A1E3   ED62      sbc  hl, hl  
 A1E5   23        inc  hl      
 A1E6   D1        pop  de      
 A1E7   7D        ld   a, l    
 A1E8   A3        and  e       
 A1E9   6F        ld   l, a    
 A1EA   CADAA2    jp   z, Label29
 A1ED   CD20B2    call Label30
 A1F0   CD03A9    call Label31
 A1F3   2A4B8A    ld   hl, (08A4Bh) 
 A1F6   2600      ld   h, 00h
 A1F8   7D        ld   a, l    
 A1F9   3D        dec  a       
 A1FA   B4        or   h       
 A1FB   2802      jr   z, Label32
 A1FD   ED62      sbc  hl, hl  

Label32:
 A1FF   7C        ld   a, h    
 A200   B5        or   l       
 A201   CA06A2    jp   z, Label33
 A204   18A8      jr   Label34

Label33:
 A206   2A558A    ld   hl, (08A55h) 
 A209   2600      ld   h, 00h
 A20B   7D        ld   a, l    
 A20C   D614      sub  14h
 A20E   B4        or   h       
 A20F   C6FF      add  a, 0FFh
 A211   ED62      sbc  hl, hl  
 A213   23        inc  hl      
 A214   E5        push hl      
 A215   2A518A    ld   hl, (08A51h) 
 A218   2600      ld   h, 00h
 A21A   7C        ld   a, h    
 A21B   2D        dec  l       
 A21C   B5        or   l       
 A21D   2803      jr   z, Label35
 A21F   210100    ld   hl, 0001h

Label35:
 A222   D1        pop  de      
 A223   7D        ld   a, l    
 A224   A3        and  e       
 A225   6F        ld   l, a    
 A226   E5        push hl      
 A227   2A548A    ld   hl, (08A54h) 
 A22A   2600      ld   h, 00h
 A22C   AF        xor  a       
 A22D   67        ld   h, a    
 A22E   3C        inc  a       
 A22F   A5        and  l       
 A230   6F        ld   l, a    
 A231   7D        ld   a, l    
 A232   B4        or   h       
 A233   C6FF      add  a, 0FFh
 A235   ED62      sbc  hl, hl  
 A237   23        inc  hl      
 A238   D1        pop  de      
 A239   7D        ld   a, l    
 A23A   A3        and  e       
 A23B   6F        ld   l, a    
 A23C   CA5FA2    jp   z, Label36
 A23F   2A478A    ld   hl, (08A47h) 
 A242   AF        xor  a       
 A243   67        ld   h, a    
 A244   B5        or   l       
 A245   CA55A2    jp   z, Label37
 A248   2A3D8A    ld   hl, (timer2max) 
 A24B   2600      ld   h, 00h
 A24D   23        inc  hl      
 A24E   7D        ld   a, l    
 A24F   323D8A    ld   (timer2max), a  
 A252   C35FA2    jp   Label36

Label37:
 A255   2A3D8A    ld   hl, (timer2max) 
 A258   2600      ld   h, 00h
 A25A   2B        dec  hl      
 A25B   7D        ld   a, l    
 A25C   323D8A    ld   (timer2max), a  

Label36:
 A25F   2A548A    ld   hl, (08A54h) 
 A262   2600      ld   h, 00h
 A264   AF        xor  a       
 A265   67        ld   h, a    
 A266   3C        inc  a       
 A267   A5        and  l       
 A268   6F        ld   l, a    
 A269   7D        ld   a, l    
 A26A   B4        or   h       
 A26B   C6FF      add  a, 0FFh
 A26D   ED62      sbc  hl, hl  
 A26F   23        inc  hl      
 A270   E5        push hl      
 A271   2A518A    ld   hl, (08A51h) 
 A274   2600      ld   h, 00h
 A276   7C        ld   a, h    
 A277   2D        dec  l       
 A278   B5        or   l       
 A279   2803      jr   z, Label38
 A27B   210100    ld   hl, 0001h

Label38:
 A27E   D1        pop  de      
 A27F   7D        ld   a, l    
 A280   A3        and  e       
 A281   6F        ld   l, a    
 A282   B4        or   h       
 A283   CA9FA2    jp   z, Label39
 A286   CDAEBF    call Label40
 A289   2A548A    ld   hl, (08A54h) 
 A28C   AF        xor  a       
 A28D   67        ld   h, a    
 A28E   B5        or   l       
 A28F   CA9CA2    jp   z, Label41
 A292   2A548A    ld   hl, (08A54h) 
 A295   2600      ld   h, 00h
 A297   23        inc  hl      
 A298   7D        ld   a, l    
 A299   32548A    ld   (08A54h), a  

Label41:
 A29C   C3D7A2    jp   Label42

Label39:
 A29F   2A548A    ld   hl, (08A54h) 
 A2A2   2600      ld   h, 00h
 A2A4   AF        xor  a       
 A2A5   11F8FF    ld   de, 0FFF8h
 A2A8   19        add  hl, de  
 A2A9   67        ld   h, a    
 A2AA   17        rla          
 A2AB   6F        ld   l, a    
 A2AC   B4        or   h       
 A2AD   CABAA2    jp   z, Label43
 A2B0   210000    ld   hl, 0000h
 A2B3   7D        ld   a, l    
 A2B4   32548A    ld   (08A54h), a  
 A2B7   C3D7A2    jp   Label42

Label43:
 A2BA   2A518A    ld   hl, (08A51h) 
 A2BD   AF        xor  a       
 A2BE   67        ld   h, a    
 A2BF   B5        or   l       
 A2C0   CACDA2    jp   z, Label44
 A2C3   210000    ld   hl, 0000h
 A2C6   7D        ld   a, l    
 A2C7   32518A    ld   (08A51h), a  
 A2CA   C3D7A2    jp   Label42

Label44:
 A2CD   2A548A    ld   hl, (08A54h) 
 A2D0   2600      ld   h, 00h
 A2D2   23        inc  hl      
 A2D3   7D        ld   a, l    
 A2D4   32548A    ld   (08A54h), a  

Label42:
 A2D7   C3B1A1    jp   Label45

Label29:
 A2DA   2A3F8A    ld   hl, (08A3Fh) 
 A2DD   2600      ld   h, 00h
 A2DF   7D        ld   a, l    
 A2E0   D60F      sub  0Fh
 A2E2   B4        or   h       
 A2E3   D601      sub  01h
 A2E5   ED62      sbc  hl, hl  
 A2E7   23        inc  hl      
 A2E8   E5        push hl      
 A2E9   2A588A    ld   hl, (08A58h) 
 A2EC   2600      ld   h, 00h
 A2EE   7C        ld   a, h    
 A2EF   2D        dec  l       
 A2F0   B5        or   l       
 A2F1   2803      jr   z, Label46
 A2F3   210100    ld   hl, 0001h

Label46:
 A2F6   D1        pop  de      
 A2F7   7D        ld   a, l    
 A2F8   A3        and  e       
 A2F9   6F        ld   l, a    
 A2FA   B4        or   h       
 A2FB   CA7CA3    jp   z, Label47
 A2FE   CD20B2    call Label30
 A301   CDA9CF    call Label48
 A304   210100    ld   hl, 0001h
 A307   22D786    ld   (penCol), hl 
 A30A   210200    ld   hl, 0002h
 A30D   7D        ld   a, l    
 A30E   32D886    ld   (penRow), a  
 A311   217AE6    ld   hl, Str25
 A314   EF6145    bcall(_VPutS)     
 A317   210100    ld   hl, 0001h
 A31A   22D786    ld   (penCol), hl 
 A31D   210A00    ld   hl, 000Ah
 A320   7D        ld   a, l    
 A321   32D886    ld   (penRow), a  
 A324   218FE6    ld   hl, Str26
 A327   EF6145    bcall(_VPutS)     
 A32A   210100    ld   hl, 0001h
 A32D   22D786    ld   (penCol), hl 
 A330   211200    ld   hl, 0012h
 A333   7D        ld   a, l    
 A334   32D886    ld   (penRow), a  
 A337   21A5E6    ld   hl, Str27
 A33A   EF6145    bcall(_VPutS)     
 A33D   210100    ld   hl, 0001h
 A340   22D786    ld   (penCol), hl 
 A343   211A00    ld   hl, 001Ah
 A346   7D        ld   a, l    
 A347   32D886    ld   (penRow), a  
 A34A   21BBE6    ld   hl, Str28
 A34D   EF6145    bcall(_VPutS)     
 A350   210100    ld   hl, 0001h
 A353   22D786    ld   (penCol), hl 
 A356   212200    ld   hl, 0022h
 A359   7D        ld   a, l    
 A35A   32D886    ld   (penRow), a  
 A35D   21CFE6    ld   hl, Str29
 A360   EF6145    bcall(_VPutS)     
 A363   210100    ld   hl, 0001h
 A366   22D786    ld   (penCol), hl 
 A369   213200    ld   hl, 0032h
 A36C   7D        ld   a, l    
 A36D   32D886    ld   (penRow), a  
 A370   2145EA    ld   hl, Str30
 A373   EF6145    bcall(_VPutS)     
 A376   CDBADE    call Label21
 A379   CD99D5    call Label22

Label47:
 A37C   2A3F8A    ld   hl, (08A3Fh) 
 A37F   2600      ld   h, 00h
 A381   7D        ld   a, l    
 A382   D630      sub  30h
 A384   B4        or   h       
 A385   C6FF      add  a, 0FFh
 A387   ED62      sbc  hl, hl  
 A389   23        inc  hl      
 A38A   7C        ld   a, h    
 A38B   B5        or   l       
 A38C   CA92A3    jp   z, Label49
 A38F   C3F49E    jp   Label50

Label49:
 A392   2A588A    ld   hl, (08A58h) 
 A395   2600      ld   h, 00h
 A397   7D        ld   a, l    
 A398   3D        dec  a       
 A399   B4        or   h       
 A39A   2802      jr   z, Label51
 A39C   ED62      sbc  hl, hl  

Label51:
 A39E   7C        ld   a, h    
 A39F   B5        or   l       
 A3A0   CAFAA8    jp   z, Label52
 A3A3   EFD04B    bcall(_GrBufClr)     
 A3A6   210100    ld   hl, 0001h
 A3A9   22D786    ld   (penCol), hl 
 A3AC   210200    ld   hl, 0002h
 A3AF   7D        ld   a, l    
 A3B0   32D886    ld   (penRow), a  
 A3B3   2164EA    ld   hl, Str31
 A3B6   EF6145    bcall(_VPutS)     
 A3B9   210100    ld   hl, 0001h
 A3BC   22D786    ld   (penCol), hl 
 A3BF   210A00    ld   hl, 000Ah
 A3C2   7D        ld   a, l    
 A3C3   32D886    ld   (penRow), a  
 A3C6   2179EA    ld   hl, Str32
 A3C9   EF6145    bcall(_VPutS)     
 A3CC   210100    ld   hl, 0001h
 A3CF   22D786    ld   (penCol), hl 
 A3D2   211200    ld   hl, 0012h
 A3D5   7D        ld   a, l    
 A3D6   32D886    ld   (penRow), a  
 A3D9   2191EA    ld   hl, Str33
 A3DC   EF6145    bcall(_VPutS)     
 A3DF   210100    ld   hl, 0001h
 A3E2   22D786    ld   (penCol), hl 
 A3E5   211A00    ld   hl, 001Ah
 A3E8   7D        ld   a, l    
 A3E9   32D886    ld   (penRow), a  
 A3EC   21A6EA    ld   hl, Str34
 A3EF   EF6145    bcall(_VPutS)     
 A3F2   210100    ld   hl, 0001h
 A3F5   22D786    ld   (penCol), hl 
 A3F8   212200    ld   hl, 0022h
 A3FB   7D        ld   a, l    
 A3FC   32D886    ld   (penRow), a  
 A3FF   21BDEA    ld   hl, Str35
 A402   EF6145    bcall(_VPutS)     
 A405   CDBADE    call Label21
 A408   213075    ld   hl, 07530h

Label53:
 A40B   10FE      djnz Label53
 A40D   2B        dec  hl      
 A40E   7D        ld   a, l    
 A40F   B4        or   h       
 A410   20F9      jr   nz, Label53
 A412   210100    ld   hl, 0001h
 A415   22D786    ld   (penCol), hl 
 A418   213200    ld   hl, 0032h
 A41B   7D        ld   a, l    
 A41C   32D886    ld   (penRow), a  
 A41F   21E8E6    ld   hl, Str11
 A422   EF6145    bcall(_VPutS)     
 A425   CDBADE    call Label21
 A428   CD99D5    call Label22
 A42B   EFD04B    bcall(_GrBufClr)     
 A42E   210100    ld   hl, 0001h
 A431   22D786    ld   (penCol), hl 
 A434   210200    ld   hl, 0002h
 A437   7D        ld   a, l    
 A438   32D886    ld   (penRow), a  
 A43B   21CDEA    ld   hl, Str36
 A43E   EF6145    bcall(_VPutS)     
 A441   210100    ld   hl, 0001h
 A444   22D786    ld   (penCol), hl 
 A447   210A00    ld   hl, 000Ah
 A44A   7D        ld   a, l    
 A44B   32D886    ld   (penRow), a  
 A44E   21E3EA    ld   hl, Str37
 A451   EF6145    bcall(_VPutS)     
 A454   210100    ld   hl, 0001h
 A457   22D786    ld   (penCol), hl 
 A45A   211200    ld   hl, 0012h
 A45D   7D        ld   a, l    
 A45E   32D886    ld   (penRow), a  
 A461   21F9EA    ld   hl, Str38
 A464   EF6145    bcall(_VPutS)     
 A467   CDBADE    call Label21
 A46A   21983A    ld   hl, 03A98h

Label54:
 A46D   10FE      djnz Label54
 A46F   2B        dec  hl      
 A470   7D        ld   a, l    
 A471   B4        or   h       
 A472   20F9      jr   nz, Label54
 A474   210100    ld   hl, 0001h
 A477   22D786    ld   (penCol), hl 
 A47A   211A00    ld   hl, 001Ah
 A47D   7D        ld   a, l    
 A47E   32D886    ld   (penRow), a  
 A481   2115EB    ld   hl, Str39
 A484   EF6145    bcall(_VPutS)     
 A487   CDBADE    call Label21
 A48A   211027    ld   hl, 02710h

Label55:
 A48D   10FE      djnz Label55
 A48F   2B        dec  hl      
 A490   7D        ld   a, l    
 A491   B4        or   h       
 A492   20F9      jr   nz, Label55
 A494   210100    ld   hl, 0001h
 A497   22D786    ld   (penCol), hl 
 A49A   212200    ld   hl, 0022h
 A49D   7D        ld   a, l    
 A49E   32D886    ld   (penRow), a  
 A4A1   2128EB    ld   hl, Str40
 A4A4   EF6145    bcall(_VPutS)     
 A4A7   CDBADE    call Label21
 A4AA   211027    ld   hl, 02710h

Label56:
 A4AD   10FE      djnz Label56
 A4AF   2B        dec  hl      
 A4B0   7D        ld   a, l    
 A4B1   B4        or   h       
 A4B2   20F9      jr   nz, Label56
 A4B4   210100    ld   hl, 0001h
 A4B7   22D786    ld   (penCol), hl 
 A4BA   213200    ld   hl, 0032h
 A4BD   7D        ld   a, l    
 A4BE   32D886    ld   (penRow), a  
 A4C1   21E8E6    ld   hl, Str11
 A4C4   EF6145    bcall(_VPutS)     
 A4C7   CDBADE    call Label21
 A4CA   CD99D5    call Label22
 A4CD   EFD04B    bcall(_GrBufClr)     
 A4D0   210100    ld   hl, 0001h
 A4D3   22D786    ld   (penCol), hl 
 A4D6   210200    ld   hl, 0002h
 A4D9   7D        ld   a, l    
 A4DA   32D886    ld   (penRow), a  
 A4DD   213BEB    ld   hl, Str41
 A4E0   EF6145    bcall(_VPutS)     
 A4E3   210100    ld   hl, 0001h
 A4E6   22D786    ld   (penCol), hl 
 A4E9   210A00    ld   hl, 000Ah
 A4EC   7D        ld   a, l    
 A4ED   32D886    ld   (penRow), a  
 A4F0   2156EB    ld   hl, Str42
 A4F3   EF6145    bcall(_VPutS)     
 A4F6   CDBADE    call Label21
 A4F9   211027    ld   hl, 02710h

Label57:
 A4FC   10FE      djnz Label57
 A4FE   2B        dec  hl      
 A4FF   7D        ld   a, l    
 A500   B4        or   h       
 A501   20F9      jr   nz, Label57
 A503   210100    ld   hl, 0001h
 A506   22D786    ld   (penCol), hl 
 A509   211200    ld   hl, 0012h
 A50C   7D        ld   a, l    
 A50D   32D886    ld   (penRow), a  
 A510   2164EB    ld   hl, Str43
 A513   EF6145    bcall(_VPutS)     
 A516   CDBADE    call Label21
 A519   211027    ld   hl, 02710h

Label58:
 A51C   10FE      djnz Label58
 A51E   2B        dec  hl      
 A51F   7D        ld   a, l    
 A520   B4        or   h       
 A521   20F9      jr   nz, Label58
 A523   210100    ld   hl, 0001h
 A526   22D786    ld   (penCol), hl 
 A529   211A00    ld   hl, 001Ah
 A52C   7D        ld   a, l    
 A52D   32D886    ld   (penRow), a  
 A530   217CEB    ld   hl, Str44
 A533   EF6145    bcall(_VPutS)     
 A536   CDBADE    call Label21
 A539   211027    ld   hl, 02710h

Label59:
 A53C   10FE      djnz Label59
 A53E   2B        dec  hl      
 A53F   7D        ld   a, l    
 A540   B4        or   h       
 A541   20F9      jr   nz, Label59
 A543   210100    ld   hl, 0001h
 A546   22D786    ld   (penCol), hl 
 A549   212200    ld   hl, 0022h
 A54C   7D        ld   a, l    
 A54D   32D886    ld   (penRow), a  
 A550   2194EB    ld   hl, Str45
 A553   EF6145    bcall(_VPutS)     
 A556   CDBADE    call Label21
 A559   211027    ld   hl, 02710h

Label60:
 A55C   10FE      djnz Label60
 A55E   2B        dec  hl      
 A55F   7D        ld   a, l    
 A560   B4        or   h       
 A561   20F9      jr   nz, Label60
 A563   210100    ld   hl, 0001h
 A566   22D786    ld   (penCol), hl 
 A569   213200    ld   hl, 0032h
 A56C   7D        ld   a, l    
 A56D   32D886    ld   (penRow), a  
 A570   21E8E6    ld   hl, Str11
 A573   EF6145    bcall(_VPutS)     
 A576   CDBADE    call Label21
 A579   CD99D5    call Label22
 A57C   EFD04B    bcall(_GrBufClr)     
 A57F   210100    ld   hl, 0001h
 A582   22D786    ld   (penCol), hl 
 A585   210200    ld   hl, 0002h
 A588   7D        ld   a, l    
 A589   32D886    ld   (penRow), a  
 A58C   21A8EB    ld   hl, Str46
 A58F   EF6145    bcall(_VPutS)     
 A592   CDBADE    call Label21
 A595   21204E    ld   hl, 04E20h

Label61:
 A598   10FE      djnz Label61
 A59A   2B        dec  hl      
 A59B   7D        ld   a, l    
 A59C   B4        or   h       
 A59D   20F9      jr   nz, Label61
 A59F   210100    ld   hl, 0001h
 A5A2   22D786    ld   (penCol), hl 
 A5A5   210A00    ld   hl, 000Ah
 A5A8   7D        ld   a, l    
 A5A9   32D886    ld   (penRow), a  
 A5AC   21C0EB    ld   hl, Str47
 A5AF   EF6145    bcall(_VPutS)     
 A5B2   CDBADE    call Label21
 A5B5   211027    ld   hl, 02710h

Label62:
 A5B8   10FE      djnz Label62
 A5BA   2B        dec  hl      
 A5BB   7D        ld   a, l    
 A5BC   B4        or   h       
 A5BD   20F9      jr   nz, Label62
 A5BF   210100    ld   hl, 0001h
 A5C2   22D786    ld   (penCol), hl 
 A5C5   211200    ld   hl, 0012h
 A5C8   7D        ld   a, l    
 A5C9   32D886    ld   (penRow), a  
 A5CC   21D9EB    ld   hl, Str48
 A5CF   EF6145    bcall(_VPutS)     
 A5D2   CDBADE    call Label21
 A5D5   211027    ld   hl, 02710h

Label63:
 A5D8   10FE      djnz Label63
 A5DA   2B        dec  hl      
 A5DB   7D        ld   a, l    
 A5DC   B4        or   h       
 A5DD   20F9      jr   nz, Label63
 A5DF   210100    ld   hl, 0001h
 A5E2   22D786    ld   (penCol), hl 
 A5E5   212200    ld   hl, 0022h
 A5E8   7D        ld   a, l    
 A5E9   32D886    ld   (penRow), a  
 A5EC   21F7EB    ld   hl, Str49
 A5EF   EF6145    bcall(_VPutS)     
 A5F2   210100    ld   hl, 0001h
 A5F5   22D786    ld   (penCol), hl 
 A5F8   212A00    ld   hl, 002Ah
 A5FB   7D        ld   a, l    
 A5FC   32D886    ld   (penRow), a  
 A5FF   2109EC    ld   hl, Str50
 A602   EF6145    bcall(_VPutS)     
 A605   CDBADE    call Label21
 A608   21983A    ld   hl, 03A98h

Label64:
 A60B   10FE      djnz Label64
 A60D   2B        dec  hl      
 A60E   7D        ld   a, l    
 A60F   B4        or   h       
 A610   20F9      jr   nz, Label64
 A612   210100    ld   hl, 0001h
 A615   22D786    ld   (penCol), hl 
 A618   213200    ld   hl, 0032h
 A61B   7D        ld   a, l    
 A61C   32D886    ld   (penRow), a  
 A61F   21E8E6    ld   hl, Str11
 A622   EF6145    bcall(_VPutS)     
 A625   CDBADE    call Label21
 A628   CD99D5    call Label22
 A62B   CDA9CF    call Label48
 A62E   EFD04B    bcall(_GrBufClr)     
 A631   210F00    ld   hl, 000Fh
 A634   22D786    ld   (penCol), hl 
 A637   210200    ld   hl, 0002h
 A63A   7D        ld   a, l    
 A63B   32D886    ld   (penRow), a  
 A63E   21DDE8    ld   hl, Str51
 A641   EF6145    bcall(_VPutS)     
 A644   211400    ld   hl, 0014h
 A647   22D786    ld   (penCol), hl 
 A64A   210A00    ld   hl, 000Ah
 A64D   7D        ld   a, l    
 A64E   32D886    ld   (penRow), a  
 A651   21F1E8    ld   hl, Str52
 A654   EF6145    bcall(_VPutS)     
 A657   CDBADE    call Label21
 A65A   21401F    ld   hl, 01F40h

Label65:
 A65D   10FE      djnz Label65
 A65F   2B        dec  hl      
 A660   7D        ld   a, l    
 A661   B4        or   h       
 A662   20F9      jr   nz, Label65
 A664   211100    ld   hl, 0011h
 A667   22D786    ld   (penCol), hl 
 A66A   211A00    ld   hl, 001Ah
 A66D   7D        ld   a, l    
 A66E   32D886    ld   (penRow), a  
 A671   211FEC    ld   hl, Str53
 A674   EF6145    bcall(_VPutS)     
 A677   212F00    ld   hl, 002Fh
 A67A   22D786    ld   (penCol), hl 
 A67D   212200    ld   hl, 0022h
 A680   7D        ld   a, l    
 A681   32D886    ld   (penRow), a  
 A684   2134EC    ld   hl, Str54
 A687   EF6145    bcall(_VPutS)     
 A68A   211100    ld   hl, 0011h
 A68D   22D786    ld   (penCol), hl 
 A690   212A00    ld   hl, 002Ah
 A693   7D        ld   a, l    
 A694   32D886    ld   (penRow), a  
 A697   2136EC    ld   hl, Str55
 A69A   EF6145    bcall(_VPutS)     
 A69D   CDBADE    call Label21
 A6A0   21204E    ld   hl, 04E20h

Label66:
 A6A3   10FE      djnz Label66
 A6A5   2B        dec  hl      
 A6A6   7D        ld   a, l    
 A6A7   B4        or   h       
 A6A8   20F9      jr   nz, Label66
 A6AA   EFD04B    bcall(_GrBufClr)     
 A6AD   210F00    ld   hl, 000Fh
 A6B0   22D786    ld   (penCol), hl 
 A6B3   210200    ld   hl, 0002h
 A6B6   7D        ld   a, l    
 A6B7   32D886    ld   (penRow), a  
 A6BA   21DDE8    ld   hl, Str51
 A6BD   EF6145    bcall(_VPutS)     
 A6C0   211400    ld   hl, 0014h
 A6C3   22D786    ld   (penCol), hl 
 A6C6   210A00    ld   hl, 000Ah
 A6C9   7D        ld   a, l    
 A6CA   32D886    ld   (penRow), a  
 A6CD   21F1E8    ld   hl, Str52
 A6D0   EF6145    bcall(_VPutS)     
 A6D3   CDBADE    call Label21
 A6D6   21401F    ld   hl, 01F40h

Label67:
 A6D9   10FE      djnz Label67
 A6DB   2B        dec  hl      
 A6DC   7D        ld   a, l    
 A6DD   B4        or   h       
 A6DE   20F9      jr   nz, Label67
 A6E0   211800    ld   hl, 0018h
 A6E3   22D786    ld   (penCol), hl 
 A6E6   211A00    ld   hl, 001Ah
 A6E9   7D        ld   a, l    
 A6EA   32D886    ld   (penRow), a  
 A6ED   214CEC    ld   hl, Str56
 A6F0   EF6145    bcall(_VPutS)     
 A6F3   211800    ld   hl, 0018h
 A6F6   22D786    ld   (penCol), hl 
 A6F9   212200    ld   hl, 0022h
 A6FC   7D        ld   a, l    
 A6FD   32D886    ld   (penRow), a  
 A700   2158EC    ld   hl, Str57
 A703   EF6145    bcall(_VPutS)     
 A706   211800    ld   hl, 0018h
 A709   22D786    ld   (penCol), hl 
 A70C   212A00    ld   hl, 002Ah
 A70F   7D        ld   a, l    
 A710   32D886    ld   (penRow), a  
 A713   2163EC    ld   hl, Str58
 A716   EF6145    bcall(_VPutS)     
 A719   211800    ld   hl, 0018h
 A71C   22D786    ld   (penCol), hl 
 A71F   213200    ld   hl, 0032h
 A722   7D        ld   a, l    
 A723   32D886    ld   (penRow), a  
 A726   216FEC    ld   hl, Str59
 A729   EF6145    bcall(_VPutS)     
 A72C   CDBADE    call Label21
 A72F   21204E    ld   hl, 04E20h

Label68:
 A732   10FE      djnz Label68
 A734   2B        dec  hl      
 A735   7D        ld   a, l    
 A736   B4        or   h       
 A737   20F9      jr   nz, Label68
 A739   EFD04B    bcall(_GrBufClr)     
 A73C   210F00    ld   hl, 000Fh
 A73F   22D786    ld   (penCol), hl 
 A742   210200    ld   hl, 0002h
 A745   7D        ld   a, l    
 A746   32D886    ld   (penRow), a  
 A749   21DDE8    ld   hl, Str51
 A74C   EF6145    bcall(_VPutS)     
 A74F   211400    ld   hl, 0014h
 A752   22D786    ld   (penCol), hl 
 A755   210A00    ld   hl, 000Ah
 A758   7D        ld   a, l    
 A759   32D886    ld   (penRow), a  
 A75C   21F1E8    ld   hl, Str52
 A75F   EF6145    bcall(_VPutS)     
 A762   CDBADE    call Label21
 A765   21401F    ld   hl, 01F40h

Label69:
 A768   10FE      djnz Label69
 A76A   2B        dec  hl      
 A76B   7D        ld   a, l    
 A76C   B4        or   h       
 A76D   20F9      jr   nz, Label69
 A76F   211800    ld   hl, 0018h
 A772   22D786    ld   (penCol), hl 
 A775   211A00    ld   hl, 001Ah
 A778   7D        ld   a, l    
 A779   32D886    ld   (penRow), a  
 A77C   217FEC    ld   hl, Str60
 A77F   EF6145    bcall(_VPutS)     
 A782   211800    ld   hl, 0018h
 A785   22D786    ld   (penCol), hl 
 A788   212200    ld   hl, 0022h
 A78B   7D        ld   a, l    
 A78C   32D886    ld   (penRow), a  
 A78F   218CEC    ld   hl, Str61
 A792   EF6145    bcall(_VPutS)     
 A795   211800    ld   hl, 0018h
 A798   22D786    ld   (penCol), hl 
 A79B   212A00    ld   hl, 002Ah
 A79E   7D        ld   a, l    
 A79F   32D886    ld   (penRow), a  
 A7A2   2199EC    ld   hl, Str62
 A7A5   EF6145    bcall(_VPutS)     
 A7A8   211800    ld   hl, 0018h
 A7AB   22D786    ld   (penCol), hl 
 A7AE   213200    ld   hl, 0032h
 A7B1   7D        ld   a, l    
 A7B2   32D886    ld   (penRow), a  
 A7B5   21A9EC    ld   hl, Str63
 A7B8   EF6145    bcall(_VPutS)     
 A7BB   CDBADE    call Label21
 A7BE   21204E    ld   hl, 04E20h

Label70:
 A7C1   10FE      djnz Label70
 A7C3   2B        dec  hl      
 A7C4   7D        ld   a, l    
 A7C5   B4        or   h       
 A7C6   20F9      jr   nz, Label70
 A7C8   CDA9CF    call Label48
 A7CB   EFD04B    bcall(_GrBufClr)     
 A7CE   2A5D8A    ld   hl, (08A5Dh) 
 A7D1   AF        xor  a       
 A7D2   BD        cp   l       
 A7D3   ED62      sbc  hl, hl  
 A7D5   23        inc  hl      
 A7D6   7C        ld   a, h    
 A7D7   B5        or   l       
 A7D8   CA17A8    jp   z, Label71
 A7DB   211000    ld   hl, 0010h
 A7DE   22D786    ld   (penCol), hl 
 A7E1   210A00    ld   hl, 000Ah
 A7E4   7D        ld   a, l    
 A7E5   32D886    ld   (penRow), a  
 A7E8   21CCE8    ld   hl, Str64
 A7EB   EF6145    bcall(_VPutS)     
 A7EE   210100    ld   hl, 0001h
 A7F1   22D786    ld   (penCol), hl 
 A7F4   211E00    ld   hl, 001Eh
 A7F7   7D        ld   a, l    
 A7F8   32D886    ld   (penRow), a  
 A7FB   21B5EC    ld   hl, Str65
 A7FE   EF6145    bcall(_VPutS)     
 A801   CDBADE    call Label21
 A804   213075    ld   hl, 07530h

Label72:
 A807   10FE      djnz Label72
 A809   2B        dec  hl      
 A80A   7D        ld   a, l    
 A80B   B4        or   h       
 A80C   20F9      jr   nz, Label72
 A80E   CD2CD9    call Label73
 A811   CDDFDB    call Label74
 A814   C3EDA8    jp   Label75

Label71:
 A817   2A5D8A    ld   hl, (08A5Dh) 
 A81A   2600      ld   h, 00h
 A81C   11C3FF    ld   de, 0FFC3h
 A81F   19        add  hl, de  
 A820   ED62      sbc  hl, hl  
 A822   23        inc  hl      
 A823   7C        ld   a, h    
 A824   B5        or   l       
 A825   CA71A8    jp   z, Label76
 A828   211000    ld   hl, 0010h
 A82B   22D786    ld   (penCol), hl 
 A82E   210A00    ld   hl, 000Ah
 A831   7D        ld   a, l    
 A832   32D886    ld   (penRow), a  
 A835   21CCE8    ld   hl, Str64
 A838   EF6145    bcall(_VPutS)     
 A83B   210D00    ld   hl, 000Dh
 A83E   22D786    ld   (penCol), hl 
 A841   211E00    ld   hl, 001Eh
 A844   7D        ld   a, l    
 A845   32D886    ld   (penRow), a  
 A848   21D3EC    ld   hl, Str66
 A84B   EF6145    bcall(_VPutS)     
 A84E   211200    ld   hl, 0012h
 A851   22D786    ld   (penCol), hl 
 A854   212600    ld   hl, 0026h
 A857   7D        ld   a, l    
 A858   32D886    ld   (penRow), a  
 A85B   21EBEC    ld   hl, Str67
 A85E   EF6145    bcall(_VPutS)     
 A861   CDBADE    call Label21
 A864   213075    ld   hl, 07530h

Label77:
 A867   10FE      djnz Label77
 A869   2B        dec  hl      
 A86A   7D        ld   a, l    
 A86B   B4        or   h       
 A86C   20F9      jr   nz, Label77
 A86E   C3EDA8    jp   Label75

Label76:
 A871   2A5D8A    ld   hl, (08A5Dh) 
 A874   2600      ld   h, 00h
 A876   7D        ld   a, l    
 A877   D63D      sub  3Dh
 A879   B4        or   h       
 A87A   C6FF      add  a, 0FFh
 A87C   ED62      sbc  hl, hl  
 A87E   23        inc  hl      
 A87F   7C        ld   a, h    
 A880   B5        or   l       
 A881   CAEDA8    jp   z, Label75
 A884   211000    ld   hl, 0010h
 A887   22D786    ld   (penCol), hl 
 A88A   210A00    ld   hl, 000Ah
 A88D   7D        ld   a, l    
 A88E   32D886    ld   (penRow), a  
 A891   21CCE8    ld   hl, Str64
 A894   EF6145    bcall(_VPutS)     
 A897   210400    ld   hl, 0004h
 A89A   22D786    ld   (penCol), hl 
 A89D   211E00    ld   hl, 001Eh
 A8A0   7D        ld   a, l    
 A8A1   32D886    ld   (penRow), a  
 A8A4   2102ED    ld   hl, Str68
 A8A7   EF6145    bcall(_VPutS)     
 A8AA   CDBADE    call Label21
 A8AD   213075    ld   hl, 07530h

Label78:
 A8B0   10FE      djnz Label78
 A8B2   2B        dec  hl      
 A8B3   7D        ld   a, l    
 A8B4   B4        or   h       
 A8B5   20F9      jr   nz, Label78
 A8B7   CD2CD9    call Label73
 A8BA   210E00    ld   hl, 000Eh
 A8BD   22D786    ld   (penCol), hl 
 A8C0   211900    ld   hl, 0019h
 A8C3   7D        ld   a, l    
 A8C4   32D886    ld   (penRow), a  
 A8C7   211FED    ld   hl, Str69
 A8CA   EF6145    bcall(_VPutS)     
 A8CD   211A00    ld   hl, 001Ah
 A8D0   22D786    ld   (penCol), hl 
 A8D3   212100    ld   hl, 0021h
 A8D6   7D        ld   a, l    
 A8D7   32D886    ld   (penRow), a  
 A8DA   2134ED    ld   hl, Str70
 A8DD   EF6145    bcall(_VPutS)     
 A8E0   CDBADE    call Label21
 A8E3   213075    ld   hl, 07530h

Label79:
 A8E6   10FE      djnz Label79
 A8E8   2B        dec  hl      
 A8E9   7D        ld   a, l    
 A8EA   B4        or   h       
 A8EB   20F9      jr   nz, Label79

Label75:
 A8ED   EFD04B    bcall(_GrBufClr)     
 A8F0   218813    ld   hl, 01388h

Label80:
 A8F3   10FE      djnz Label80
 A8F5   2B        dec  hl      
 A8F6   7D        ld   a, l    
 A8F7   B4        or   h       
 A8F8   20F9      jr   nz, Label80

Label52:
 A8FA   EFD04B    bcall(_GrBufClr)     
 A8FD   CDBADE    call Label21
 A900   C33FDE    jp   Label81

Label31:
 A903   210000    ld   hl, 0000h
 A906   7D        ld   a, l    
 A907   323F8A    ld   (08A3Fh), a  

Label86:
 A90A   2A3F8A    ld   hl, (08A3Fh) 
 A90D   2600      ld   h, 00h
 A90F   7D        ld   a, l    
 A910   D60F      sub  0Fh
 A912   B4        or   h       
 A913   C6FF      add  a, 0FFh
 A915   ED62      sbc  hl, hl  
 A917   23        inc  hl      
 A918   E5        push hl      
 A919   2A3F8A    ld   hl, (08A3Fh) 
 A91C   2600      ld   h, 00h
 A91E   7D        ld   a, l    
 A91F   D60B      sub  0Bh
 A921   B4        or   h       
 A922   C6FF      add  a, 0FFh
 A924   ED62      sbc  hl, hl  
 A926   23        inc  hl      
 A927   D1        pop  de      
 A928   7D        ld   a, l    
 A929   B3        or   e       
 A92A   6F        ld   l, a    
 A92B   E5        push hl      
 A92C   2A3F8A    ld   hl, (08A3Fh) 
 A92F   2600      ld   h, 00h
 A931   7D        ld   a, l    
 A932   D60A      sub  0Ah
 A934   B4        or   h       
 A935   C6FF      add  a, 0FFh
 A937   ED62      sbc  hl, hl  
 A939   23        inc  hl      
 A93A   D1        pop  de      
 A93B   7D        ld   a, l    
 A93C   B3        or   e       
 A93D   6F        ld   l, a    
 A93E   E5        push hl      
 A93F   2A3F8A    ld   hl, (08A3Fh) 
 A942   2600      ld   h, 00h
 A944   7D        ld   a, l    
 A945   3D        dec  a       
 A946   B4        or   h       
 A947   2802      jr   z, Label82
 A949   ED62      sbc  hl, hl  

Label82:
 A94B   D1        pop  de      
 A94C   7D        ld   a, l    
 A94D   B3        or   e       
 A94E   6F        ld   l, a    
 A94F   E5        push hl      
 A950   2A3F8A    ld   hl, (08A3Fh) 
 A953   2600      ld   h, 00h
 A955   2D        dec  l       
 A956   7D        ld   a, l    
 A957   3D        dec  a       
 A958   B4        or   h       
 A959   2802      jr   z, Label83
 A95B   ED62      sbc  hl, hl  

Label83:
 A95D   D1        pop  de      
 A95E   7D        ld   a, l    
 A95F   B3        or   e       
 A960   6F        ld   l, a    
 A961   E5        push hl      
 A962   2A3F8A    ld   hl, (08A3Fh) 
 A965   2600      ld   h, 00h
 A967   7D        ld   a, l    
 A968   D603      sub  03h
 A96A   B4        or   h       
 A96B   C6FF      add  a, 0FFh
 A96D   ED62      sbc  hl, hl  
 A96F   23        inc  hl      
 A970   D1        pop  de      
 A971   7D        ld   a, l    
 A972   B3        or   e       
 A973   6F        ld   l, a    
 A974   E5        push hl      
 A975   2A3F8A    ld   hl, (08A3Fh) 
 A978   2600      ld   h, 00h
 A97A   7D        ld   a, l    
 A97B   D604      sub  04h
 A97D   B4        or   h       
 A97E   C6FF      add  a, 0FFh
 A980   ED62      sbc  hl, hl  
 A982   23        inc  hl      
 A983   D1        pop  de      
 A984   7D        ld   a, l    
 A985   B3        or   e       
 A986   6F        ld   l, a    
 A987   E5        push hl      
 A988   2A3F8A    ld   hl, (08A3Fh) 
 A98B   2600      ld   h, 00h
 A98D   7D        ld   a, l    
 A98E   D631      sub  31h
 A990   B4        or   h       
 A991   C6FF      add  a, 0FFh
 A993   ED62      sbc  hl, hl  
 A995   23        inc  hl      
 A996   D1        pop  de      
 A997   7D        ld   a, l    
 A998   B3        or   e       
 A999   6F        ld   l, a    
 A99A   E5        push hl      
 A99B   2A3F8A    ld   hl, (08A3Fh) 
 A99E   2600      ld   h, 00h
 A9A0   7D        ld   a, l    
 A9A1   D635      sub  35h
 A9A3   B4        or   h       
 A9A4   C6FF      add  a, 0FFh
 A9A6   ED62      sbc  hl, hl  
 A9A8   23        inc  hl      
 A9A9   D1        pop  de      
 A9AA   7D        ld   a, l    
 A9AB   B3        or   e       
 A9AC   6F        ld   l, a    
 A9AD   B4        or   h       
 A9AE   C2C1A9    jp   nz, Label84
 A9B1   CD94DF    call Label85
 A9B4   EF1840    bcall(_GetCSC)     
 A9B7   2600      ld   h, 00h
 A9B9   6F        ld   l, a    
 A9BA   7D        ld   a, l    
 A9BB   323F8A    ld   (08A3Fh), a  
 A9BE   C30AA9    jp   Label86

Label84:
 A9C1   2A3F8A    ld   hl, (08A3Fh) 
 A9C4   2600      ld   h, 00h
 A9C6   7D        ld   a, l    
 A9C7   D60B      sub  0Bh
 A9C9   B4        or   h       
 A9CA   C6FF      add  a, 0FFh
 A9CC   ED62      sbc  hl, hl  
 A9CE   23        inc  hl      
 A9CF   E5        push hl      
 A9D0   2A3F8A    ld   hl, (08A3Fh) 
 A9D3   2600      ld   h, 00h
 A9D5   7D        ld   a, l    
 A9D6   D60A      sub  0Ah
 A9D8   B4        or   h       
 A9D9   C6FF      add  a, 0FFh
 A9DB   ED62      sbc  hl, hl  
 A9DD   23        inc  hl      
 A9DE   D1        pop  de      
 A9DF   7D        ld   a, l    
 A9E0   B3        or   e       
 A9E1   6F        ld   l, a    
 A9E2   B4        or   h       
 A9E3   CAECA9    jp   z, Label87
 A9E6   CDF0C5    call Label88
 A9E9   C303A9    jp   Label31

Label87:
 A9EC   2A3F8A    ld   hl, (08A3Fh) 
 A9EF   2600      ld   h, 00h
 A9F1   7D        ld   a, l    
 A9F2   D635      sub  35h
 A9F4   B4        or   h       
 A9F5   C6FF      add  a, 0FFh
 A9F7   ED62      sbc  hl, hl  
 A9F9   23        inc  hl      
 A9FA   7C        ld   a, h    
 A9FB   B5        or   l       
 A9FC   CA02AA    jp   z, Label89
 A9FF   CDAAC9    call Label90

Label89:
 AA02   2A418A    ld   hl, (08A41h) 
 AA05   2600      ld   h, 00h
 AA07   22B689    ld   (089B6h), hl 
 AA0A   2A428A    ld   hl, (08A42h) 
 AA0D   2600      ld   h, 00h
 AA0F   22B889    ld   (089B8h), hl 
 AA12   CDF7B4    call Label91
 AA15   2A3F8A    ld   hl, (08A3Fh) 
 AA18   2600      ld   h, 00h
 AA1A   7D        ld   a, l    
 AA1B   3D        dec  a       
 AA1C   B4        or   h       
 AA1D   2802      jr   z, Label92
 AA1F   ED62      sbc  hl, hl  

Label92:
 AA21   7C        ld   a, h    
 AA22   B5        or   l       
 AA23   CA72AA    jp   z, Label93
 AA26   2AB689    ld   hl, (089B6h) 
 AA29   23        inc  hl      
 AA2A   22B689    ld   (089B6h), hl 
 AA2D   CDF7B4    call Label91
 AA30   2ABA89    ld   hl, (089BAh) 
 AA33   11EC86    ld   de, saveSScreen
 AA36   19        add  hl, de  
 AA37   6E        ld   l, (hl) 
 AA38   AF        xor  a       
 AA39   67        ld   h, a    
 AA3A   B5        or   l       
 AA3B   C26CAA    jp   nz, Label94
 AA3E   216300    ld   hl, 0063h
 AA41   E5        push hl      
 AA42   2ABA89    ld   hl, (089BAh) 
 AA45   11EC86    ld   de, saveSScreen
 AA48   19        add  hl, de  
 AA49   D1        pop  de      
 AA4A   73        ld   (hl), e 
 AA4B   2ABA89    ld   hl, (089BAh) 
 AA4E   11F2FF    ld   de, 0FFF2h
 AA51   19        add  hl, de  
 AA52   22BA89    ld   (089BAh), hl 
 AA55   210000    ld   hl, 0000h
 AA58   E5        push hl      
 AA59   2ABA89    ld   hl, (089BAh) 
 AA5C   11EC86    ld   de, saveSScreen
 AA5F   19        add  hl, de  
 AA60   D1        pop  de      
 AA61   73        ld   (hl), e 
 AA62   2AB689    ld   hl, (089B6h) 
 AA65   7D        ld   a, l    
 AA66   32418A    ld   (08A41h), a  
 AA69   C36FAA    jp   Label95

Label94:
 AA6C   CDC8B0    call Label96

Label95:
 AA6F   C385AB    jp   Label97

Label93:
 AA72   2A3F8A    ld   hl, (08A3Fh) 
 AA75   2600      ld   h, 00h
 AA77   2D        dec  l       
 AA78   7D        ld   a, l    
 AA79   3D        dec  a       
 AA7A   B4        or   h       
 AA7B   2802      jr   z, Label98
 AA7D   ED62      sbc  hl, hl  

Label98:
 AA7F   7C        ld   a, h    
 AA80   B5        or   l       
 AA81   CACDAA    jp   z, Label99
 AA84   2AB889    ld   hl, (089B8h) 
 AA87   2B        dec  hl      
 AA88   22B889    ld   (089B8h), hl 
 AA8B   CDF7B4    call Label91
 AA8E   2ABA89    ld   hl, (089BAh) 
 AA91   11EC86    ld   de, saveSScreen
 AA94   19        add  hl, de  
 AA95   6E        ld   l, (hl) 
 AA96   AF        xor  a       
 AA97   67        ld   h, a    
 AA98   B5        or   l       
 AA99   C2C7AA    jp   nz, Label100
 AA9C   216300    ld   hl, 0063h
 AA9F   E5        push hl      
 AAA0   2ABA89    ld   hl, (089BAh) 
 AAA3   11EC86    ld   de, saveSScreen
 AAA6   19        add  hl, de  
 AAA7   D1        pop  de      
 AAA8   73        ld   (hl), e 
 AAA9   2ABA89    ld   hl, (089BAh) 
 AAAC   23        inc  hl      
 AAAD   22BA89    ld   (089BAh), hl 
 AAB0   210000    ld   hl, 0000h
 AAB3   E5        push hl      
 AAB4   2ABA89    ld   hl, (089BAh) 
 AAB7   11EC86    ld   de, saveSScreen
 AABA   19        add  hl, de  
 AABB   D1        pop  de      
 AABC   73        ld   (hl), e 
 AABD   2AB889    ld   hl, (089B8h) 
 AAC0   7D        ld   a, l    
 AAC1   32428A    ld   (08A42h), a  
 AAC4   C3CAAA    jp   Label101

Label100:
 AAC7   CDC8B0    call Label96

Label101:
 AACA   C385AB    jp   Label97

Label99:
 AACD   2A3F8A    ld   hl, (08A3Fh) 
 AAD0   2600      ld   h, 00h
 AAD2   7D        ld   a, l    
 AAD3   D603      sub  03h
 AAD5   B4        or   h       
 AAD6   C6FF      add  a, 0FFh
 AAD8   ED62      sbc  hl, hl  
 AADA   23        inc  hl      
 AADB   7C        ld   a, h    
 AADC   B5        or   l       
 AADD   CA29AB    jp   z, Label102
 AAE0   2AB889    ld   hl, (089B8h) 
 AAE3   23        inc  hl      
 AAE4   22B889    ld   (089B8h), hl 
 AAE7   CDF7B4    call Label91
 AAEA   2ABA89    ld   hl, (089BAh) 
 AAED   11EC86    ld   de, saveSScreen
 AAF0   19        add  hl, de  
 AAF1   6E        ld   l, (hl) 
 AAF2   AF        xor  a       
 AAF3   67        ld   h, a    
 AAF4   B5        or   l       
 AAF5   C223AB    jp   nz, Label103
 AAF8   216300    ld   hl, 0063h
 AAFB   E5        push hl      
 AAFC   2ABA89    ld   hl, (089BAh) 
 AAFF   11EC86    ld   de, saveSScreen
 AB02   19        add  hl, de  
 AB03   D1        pop  de      
 AB04   73        ld   (hl), e 
 AB05   2ABA89    ld   hl, (089BAh) 
 AB08   2B        dec  hl      
 AB09   22BA89    ld   (089BAh), hl 
 AB0C   210000    ld   hl, 0000h
 AB0F   E5        push hl      
 AB10   2ABA89    ld   hl, (089BAh) 
 AB13   11EC86    ld   de, saveSScreen
 AB16   19        add  hl, de  
 AB17   D1        pop  de      
 AB18   73        ld   (hl), e 
 AB19   2AB889    ld   hl, (089B8h) 
 AB1C   7D        ld   a, l    
 AB1D   32428A    ld   (08A42h), a  
 AB20   C326AB    jp   Label104

Label103:
 AB23   CDC8B0    call Label96

Label104:
 AB26   C385AB    jp   Label97

Label102:
 AB29   2A3F8A    ld   hl, (08A3Fh) 
 AB2C   2600      ld   h, 00h
 AB2E   7D        ld   a, l    
 AB2F   D604      sub  04h
 AB31   B4        or   h       
 AB32   C6FF      add  a, 0FFh
 AB34   ED62      sbc  hl, hl  
 AB36   23        inc  hl      
 AB37   7C        ld   a, h    
 AB38   B5        or   l       
 AB39   CA85AB    jp   z, Label97
 AB3C   2AB689    ld   hl, (089B6h) 
 AB3F   2B        dec  hl      
 AB40   22B689    ld   (089B6h), hl 
 AB43   CDF7B4    call Label91
 AB46   2ABA89    ld   hl, (089BAh) 
 AB49   11EC86    ld   de, saveSScreen
 AB4C   19        add  hl, de  
 AB4D   6E        ld   l, (hl) 
 AB4E   AF        xor  a       
 AB4F   67        ld   h, a    
 AB50   B5        or   l       
 AB51   C282AB    jp   nz, Label105
 AB54   216300    ld   hl, 0063h
 AB57   E5        push hl      
 AB58   2ABA89    ld   hl, (089BAh) 
 AB5B   11EC86    ld   de, saveSScreen
 AB5E   19        add  hl, de  
 AB5F   D1        pop  de      
 AB60   73        ld   (hl), e 
 AB61   2ABA89    ld   hl, (089BAh) 
 AB64   110E00    ld   de, 000Eh
 AB67   19        add  hl, de  
 AB68   22BA89    ld   (089BAh), hl 
 AB6B   210000    ld   hl, 0000h
 AB6E   E5        push hl      
 AB6F   2ABA89    ld   hl, (089BAh) 
 AB72   11EC86    ld   de, saveSScreen
 AB75   19        add  hl, de  
 AB76   D1        pop  de      
 AB77   73        ld   (hl), e 
 AB78   2AB689    ld   hl, (089B6h) 
 AB7B   7D        ld   a, l    
 AB7C   32418A    ld   (08A41h), a  
 AB7F   C385AB    jp   Label97

Label105:
 AB82   CDC8B0    call Label96

Label97:
 AB85   CD94DF    call Label85
 AB88   C9        ret          

Label27:
 AB89   CD22D3    call Label106
 AB8C   210000    ld   hl, 0000h
 AB8F   7D        ld   a, l    
 AB90   325B8A    ld   (08A5Bh), a  
 AB93   210000    ld   hl, 0000h
 AB96   7D        ld   a, l    
 AB97   32538A    ld   (08A53h), a  
 AB9A   2A3B8A    ld   hl, (timer1max) 
 AB9D   2600      ld   h, 00h
 AB9F   AF        xor  a       
 ABA0   11FDFF    ld   de, 0FFFDh
 ABA3   19        add  hl, de  
 ABA4   67        ld   h, a    
 ABA5   17        rla          
 ABA6   6F        ld   l, a    
 ABA7   B4        or   h       
 ABA8   CAD0AB    jp   z, Label107
 ABAB   CDACDE    call Label15
 ABAE   111400    ld   de, 0014h
 ABB1   CD6ADE    call Label16
 ABB4   23        inc  hl      
 ABB5   7D        ld   a, l    
 ABB6   32558A    ld   (08A55h), a  
 ABB9   2600      ld   h, 00h
 ABBB   7D        ld   a, l    
 ABBC   D614      sub  14h
 ABBE   B4        or   h       
 ABBF   C6FF      add  a, 0FFh
 ABC1   ED62      sbc  hl, hl  
 ABC3   23        inc  hl      
 ABC4   7C        ld   a, h    
 ABC5   B5        or   l       
 ABC6   CAD0AB    jp   z, Label107
 ABC9   211000    ld   hl, 0010h
 ABCC   7D        ld   a, l    
 ABCD   32438A    ld   (08A43h), a  

Label107:
 ABD0   CDACDE    call Label15
 ABD3   111400    ld   de, 0014h
 ABD6   CD6ADE    call Label16
 ABD9   23        inc  hl      
 ABDA   7D        ld   a, l    
 ABDB   32528A    ld   (08A52h), a  
 ABDE   2600      ld   h, 00h
 ABE0   7D        ld   a, l    
 ABE1   D614      sub  14h
 ABE3   B4        or   h       
 ABE4   D601      sub  01h
 ABE6   ED62      sbc  hl, hl  
 ABE8   23        inc  hl      
 ABE9   E5        push hl      
 ABEA   2A3B8A    ld   hl, (timer1max) 
 ABED   2600      ld   h, 00h
 ABEF   11FEFF    ld   de, 0FFFEh
 ABF2   19        add  hl, de  
 ABF3   ED62      sbc  hl, hl  
 ABF5   23        inc  hl      
 ABF6   D1        pop  de      
 ABF7   7D        ld   a, l    
 ABF8   B3        or   e       
 ABF9   6F        ld   l, a    
 ABFA   B4        or   h       
 ABFB   CA08AC    jp   z, Label108
 ABFE   210000    ld   hl, 0000h
 AC01   7D        ld   a, l    
 AC02   32528A    ld   (08A52h), a  
 AC05   C30FAC    jp   Label109

Label108:
 AC08   210400    ld   hl, 0004h
 AC0B   7D        ld   a, l    
 AC0C   32438A    ld   (08A43h), a  

Label109:
 AC0F   210000    ld   hl, 0000h
 AC12   7D        ld   a, l    
 AC13   324B8A    ld   (08A4Bh), a  
 AC16   210000    ld   hl, 0000h
 AC19   1804      jr   Label110

Label115:
 AC1B   2AB689    ld   hl, (089B6h) 
 AC1E   23        inc  hl      

Label110:
 AC1F   22B689    ld   (089B6h), hl 
 AC22   EB        ex   de, hl  
 AC23   210700    ld   hl, 0007h
 AC26   B7        or   a       
 AC27   ED52      sbc  hl, de  
 AC29   DA56AC    jp   c, Label111
 AC2C   210000    ld   hl, 0000h
 AC2F   1804      jr   Label112

Label114:
 AC31   2AB889    ld   hl, (089B8h) 
 AC34   23        inc  hl      

Label112:
 AC35   22B889    ld   (089B8h), hl 
 AC38   EB        ex   de, hl  
 AC39   210D00    ld   hl, 000Dh
 AC3C   B7        or   a       
 AC3D   ED52      sbc  hl, de  
 AC3F   DA54AC    jp   c, Label113
 AC42   CDF7B4    call Label91
 AC45   210000    ld   hl, 0000h
 AC48   E5        push hl      
 AC49   2ABA89    ld   hl, (089BAh) 
 AC4C   11EC86    ld   de, saveSScreen
 AC4F   19        add  hl, de  
 AC50   D1        pop  de      
 AC51   73        ld   (hl), e 
 AC52   18DD      jr   Label114

Label113:
 AC54   18C5      jr   Label115

Label111:
 AC56   CDACDE    call Label15
 AC59   110300    ld   de, 0003h
 AC5C   CD6ADE    call Label16
 AC5F   23        inc  hl      
 AC60   22C489    ld   (089C4h), hl 
 AC63   CDACDE    call Label15
 AC66   110600    ld   de, 0006h
 AC69   CD6ADE    call Label16
 AC6C   23        inc  hl      
 AC6D   22E289    ld   (089E2h), hl 
 AC70   210000    ld   hl, 0000h
 AC73   1804      jr   Label116

Label124:
 AC75   2AB689    ld   hl, (089B6h) 
 AC78   23        inc  hl      

Label116:
 AC79   22B689    ld   (089B6h), hl 
 AC7C   EB        ex   de, hl  
 AC7D   210700    ld   hl, 0007h
 AC80   B7        or   a       
 AC81   ED52      sbc  hl, de  
 AC83   DA2EAD    jp   c, Label117
 AC86   210000    ld   hl, 0000h
 AC89   1804      jr   Label118

Label123:
 AC8B   2AB889    ld   hl, (089B8h) 
 AC8E   23        inc  hl      

Label118:
 AC8F   22B889    ld   (089B8h), hl 
 AC92   EB        ex   de, hl  
 AC93   210D00    ld   hl, 000Dh
 AC96   B7        or   a       
 AC97   ED52      sbc  hl, de  
 AC99   DA2BAD    jp   c, Label119
 AC9C   CDF7B4    call Label91
 AC9F   2AB689    ld   hl, (089B6h) 
 ACA2   23        inc  hl      
 ACA3   E5        push hl      
 ACA4   210400    ld   hl, 0004h
 ACA7   ED5BC489  ld   de, (089C4h) 
 ACAB   B7        or   a       
 ACAC   ED52      sbc  hl, de  
 ACAE   D1        pop  de      
 ACAF   B7        or   a       
 ACB0   ED52      sbc  hl, de  
 ACB2   ED62      sbc  hl, hl  
 ACB4   23        inc  hl      
 ACB5   E5        push hl      
 ACB6   2AB689    ld   hl, (089B6h) 
 ACB9   23        inc  hl      
 ACBA   E5        push hl      
 ACBB   210400    ld   hl, 0004h
 ACBE   ED5BC489  ld   de, (089C4h) 
 ACC2   19        add  hl, de  
 ACC3   D1        pop  de      
 ACC4   AF        xor  a       
 ACC5   ED52      sbc  hl, de  
 ACC7   67        ld   h, a    
 ACC8   17        rla          
 ACC9   6F        ld   l, a    
 ACCA   D1        pop  de      
 ACCB   7D        ld   a, l    
 ACCC   B3        or   e       
 ACCD   6F        ld   l, a    
 ACCE   E5        push hl      
 ACCF   2AB889    ld   hl, (089B8h) 
 ACD2   23        inc  hl      
 ACD3   E5        push hl      
 ACD4   210700    ld   hl, 0007h
 ACD7   ED5BE289  ld   de, (089E2h) 
 ACDB   B7        or   a       
 ACDC   ED52      sbc  hl, de  
 ACDE   D1        pop  de      
 ACDF   B7        or   a       
 ACE0   ED52      sbc  hl, de  
 ACE2   ED62      sbc  hl, hl  
 ACE4   23        inc  hl      
 ACE5   D1        pop  de      
 ACE6   7D        ld   a, l    
 ACE7   B3        or   e       
 ACE8   6F        ld   l, a    
 ACE9   E5        push hl      
 ACEA   2AB889    ld   hl, (089B8h) 
 ACED   23        inc  hl      
 ACEE   E5        push hl      
 ACEF   210700    ld   hl, 0007h
 ACF2   ED5BE289  ld   de, (089E2h) 
 ACF6   19        add  hl, de  
 ACF7   D1        pop  de      
 ACF8   AF        xor  a       
 ACF9   ED52      sbc  hl, de  
 ACFB   67        ld   h, a    
 ACFC   17        rla          
 ACFD   D1        pop  de      
 ACFE   B3        or   e       
 ACFF   6F        ld   l, a    
 AD00   B4        or   h       
 AD01   CA14AD    jp   z, Label120
 AD04   210100    ld   hl, 0001h
 AD07   E5        push hl      
 AD08   2ABA89    ld   hl, (089BAh) 
 AD0B   11EC86    ld   de, saveSScreen
 AD0E   19        add  hl, de  
 AD0F   D1        pop  de      
 AD10   73        ld   (hl), e 
 AD11   C328AD    jp   Label121

Label120:
 AD14   2A3B8A    ld   hl, (timer1max) 
 AD17   2600      ld   h, 00h
 AD19   11C3FF    ld   de, 0FFC3h
 AD1C   19        add  hl, de  
 AD1D   ED62      sbc  hl, hl  
 AD1F   23        inc  hl      
 AD20   7C        ld   a, h    
 AD21   B5        or   l       
 AD22   CA28AD    jp   z, Label121
 AD25   CD69B9    call Label122

Label121:
 AD28   C38BAC    jp   Label123

Label119:
 AD2B   C375AC    jp   Label124

Label117:
 AD2E   2A3E8A    ld   hl, (timer3) 
 AD31   2600      ld   h, 00h
 AD33   22EA89    ld   (089EAh), hl 
 AD36   22E489    ld   (089E4h), hl 

Label127:
 AD39   2AE489    ld   hl, (089E4h) 
 AD3C   ED5BEA89  ld   de, (089EAh) 
 AD40   AF        xor  a       
 AD41   ED52      sbc  hl, de  
 AD43   2803      jr   z, Label125
 AD45   210100    ld   hl, 0001h

Label125:
 AD48   7C        ld   a, h    
 AD49   B5        or   l       
 AD4A   C25CAD    jp   nz, Label126
 AD4D   CDACDE    call Label15
 AD50   2600      ld   h, 00h
 AD52   7D        ld   a, l    
 AD53   E603      and  03h
 AD55   6F        ld   l, a    
 AD56   23        inc  hl      
 AD57   22E489    ld   (089E4h), hl 
 AD5A   18DD      jr   Label127

Label126:
 AD5C   2AE489    ld   hl, (089E4h) 
 AD5F   7D        ld   a, l    
 AD60   323E8A    ld   (timer3), a  
 AD63   2AEA89    ld   hl, (089EAh) 
 AD66   7D        ld   a, l    
 AD67   3D        dec  a       
 AD68   B4        or   h       
 AD69   2802      jr   z, Label128
 AD6B   ED62      sbc  hl, hl  

Label128:
 AD6D   E5        push hl      
 AD6E   2AEA89    ld   hl, (089EAh) 
 AD71   2D        dec  l       
 AD72   7D        ld   a, l    
 AD73   3D        dec  a       
 AD74   B4        or   h       
 AD75   2802      jr   z, Label129
 AD77   ED62      sbc  hl, hl  

Label129:
 AD79   D1        pop  de      
 AD7A   7D        ld   a, l    
 AD7B   B3        or   e       
 AD7C   6F        ld   l, a    
 AD7D   B4        or   h       
 AD7E   CA0CAE    jp   z, Label130
 AD81   2AEA89    ld   hl, (089EAh) 
 AD84   7D        ld   a, l    
 AD85   3D        dec  a       
 AD86   B4        or   h       
 AD87   2802      jr   z, Label131
 AD89   ED62      sbc  hl, hl  

Label131:
 AD8B   7C        ld   a, h    
 AD8C   B5        or   l       
 AD8D   CAA4AD    jp   z, Label132
 AD90   210300    ld   hl, 0003h
 AD93   ED5BC489  ld   de, (089C4h) 
 AD97   B7        or   a       
 AD98   ED52      sbc  hl, de  
 AD9A   22B689    ld   (089B6h), hl 
 AD9D   23        inc  hl      
 AD9E   22E489    ld   (089E4h), hl 
 ADA1   C3B3AD    jp   Label133

Label132:
 ADA4   210400    ld   hl, 0004h
 ADA7   ED5BC489  ld   de, (089C4h) 
 ADAB   19        add  hl, de  
 ADAC   22B689    ld   (089B6h), hl 
 ADAF   2B        dec  hl      
 ADB0   22E489    ld   (089E4h), hl 

Label133:
 ADB3   CDACDE    call Label15
 ADB6   AF        xor  a       
 ADB7   67        ld   h, a    
 ADB8   3C        inc  a       
 ADB9   A5        and  l       
 ADBA   6F        ld   l, a    
 ADBB   23        inc  hl      
 ADBC   7D        ld   a, l    
 ADBD   3D        dec  a       
 ADBE   B4        or   h       
 ADBF   2802      jr   z, Label134
 ADC1   ED62      sbc  hl, hl  

Label134:
 ADC3   7C        ld   a, h    
 ADC4   B5        or   l       
 ADC5   CAD6AD    jp   z, Label135
 ADC8   210600    ld   hl, 0006h
 ADCB   ED5BE289  ld   de, (089E2h) 
 ADCF   19        add  hl, de  
 ADD0   22B889    ld   (089B8h), hl 
 ADD3   C3E3AD    jp   Label136

Label135:
 ADD6   210800    ld   hl, 0008h
 ADD9   ED5BE289  ld   de, (089E2h) 
 ADDD   B7        or   a       
 ADDE   ED52      sbc  hl, de  
 ADE0   22B889    ld   (089B8h), hl 

Label136:
 ADE3   CDF7B4    call Label91
 ADE6   216100    ld   hl, 0061h
 ADE9   E5        push hl      
 ADEA   2ABA89    ld   hl, (089BAh) 
 ADED   11EC86    ld   de, saveSScreen
 ADF0   19        add  hl, de  
 ADF1   D1        pop  de      
 ADF2   73        ld   (hl), e 
 ADF3   2AE489    ld   hl, (089E4h) 
 ADF6   22B689    ld   (089B6h), hl 
 ADF9   CDF7B4    call Label91
 ADFC   216300    ld   hl, 0063h
 ADFF   E5        push hl      
 AE00   2ABA89    ld   hl, (089BAh) 
 AE03   11EC86    ld   de, saveSScreen
 AE06   19        add  hl, de  
 AE07   D1        pop  de      
 AE08   73        ld   (hl), e 
 AE09   C396AE    jp   Label137

Label130:
 AE0C   2AEA89    ld   hl, (089EAh) 
 AE0F   7D        ld   a, l    
 AE10   D603      sub  03h
 AE12   B4        or   h       
 AE13   C6FF      add  a, 0FFh
 AE15   ED62      sbc  hl, hl  
 AE17   23        inc  hl      
 AE18   7C        ld   a, h    
 AE19   B5        or   l       
 AE1A   CA31AE    jp   z, Label138
 AE1D   210600    ld   hl, 0006h
 AE20   ED5BE289  ld   de, (089E2h) 
 AE24   B7        or   a       
 AE25   ED52      sbc  hl, de  
 AE27   22B889    ld   (089B8h), hl 
 AE2A   23        inc  hl      
 AE2B   22E689    ld   (089E6h), hl 
 AE2E   C340AE    jp   Label139

Label138:
 AE31   210700    ld   hl, 0007h
 AE34   ED5BE289  ld   de, (089E2h) 
 AE38   19        add  hl, de  
 AE39   22B889    ld   (089B8h), hl 
 AE3C   2B        dec  hl      
 AE3D   22E689    ld   (089E6h), hl 

Label139:
 AE40   CDACDE    call Label15
 AE43   AF        xor  a       
 AE44   67        ld   h, a    
 AE45   3C        inc  a       
 AE46   A5        and  l       
 AE47   6F        ld   l, a    
 AE48   23        inc  hl      
 AE49   7D        ld   a, l    
 AE4A   3D        dec  a       
 AE4B   B4        or   h       
 AE4C   2802      jr   z, Label140
 AE4E   ED62      sbc  hl, hl  

Label140:
 AE50   7C        ld   a, h    
 AE51   B5        or   l       
 AE52   CA63AE    jp   z, Label141
 AE55   210300    ld   hl, 0003h
 AE58   ED5BC489  ld   de, (089C4h) 
 AE5C   19        add  hl, de  
 AE5D   22B689    ld   (089B6h), hl 
 AE60   C370AE    jp   Label142

Label141:
 AE63   210400    ld   hl, 0004h
 AE66   ED5BC489  ld   de, (089C4h) 
 AE6A   B7        or   a       
 AE6B   ED52      sbc  hl, de  
 AE6D   22B689    ld   (089B6h), hl 

Label142:
 AE70   CDF7B4    call Label91
 AE73   216100    ld   hl, 0061h
 AE76   E5        push hl      
 AE77   2ABA89    ld   hl, (089BAh) 
 AE7A   11EC86    ld   de, saveSScreen
 AE7D   19        add  hl, de  
 AE7E   D1        pop  de      
 AE7F   73        ld   (hl), e 
 AE80   2AE689    ld   hl, (089E6h) 
 AE83   22B889    ld   (089B8h), hl 
 AE86   CDF7B4    call Label91
 AE89   216300    ld   hl, 0063h
 AE8C   E5        push hl      
 AE8D   2ABA89    ld   hl, (089BAh) 
 AE90   11EC86    ld   de, saveSScreen
 AE93   19        add  hl, de  
 AE94   D1        pop  de      
 AE95   73        ld   (hl), e 

Label137:
 AE96   2ABA89    ld   hl, (089BAh) 
 AE99   7D        ld   a, l    
 AE9A   325A8A    ld   (08A5Ah), a  
 AE9D   2AB689    ld   hl, (089B6h) 
 AEA0   7D        ld   a, l    
 AEA1   32418A    ld   (08A41h), a  
 AEA4   2AB889    ld   hl, (089B8h) 
 AEA7   7D        ld   a, l    
 AEA8   32428A    ld   (08A42h), a  
 AEAB   2A3E8A    ld   hl, (timer3) 
 AEAE   2600      ld   h, 00h
 AEB0   22EA89    ld   (089EAh), hl 
 AEB3   7D        ld   a, l    
 AEB4   D603      sub  03h
 AEB6   B4        or   h       
 AEB7   C6FF      add  a, 0FFh
 AEB9   ED62      sbc  hl, hl  
 AEBB   23        inc  hl      
 AEBC   E5        push hl      
 AEBD   2AEA89    ld   hl, (089EAh) 
 AEC0   7D        ld   a, l    
 AEC1   D604      sub  04h
 AEC3   B4        or   h       
 AEC4   C6FF      add  a, 0FFh
 AEC6   ED62      sbc  hl, hl  
 AEC8   23        inc  hl      
 AEC9   D1        pop  de      
 AECA   7D        ld   a, l    
 AECB   B3        or   e       
 AECC   6F        ld   l, a    
 AECD   B4        or   h       
 AECE   CA72AF    jp   z, Label143
 AED1   2AEA89    ld   hl, (089EAh) 
 AED4   7D        ld   a, l    
 AED5   D603      sub  03h
 AED7   B4        or   h       
 AED8   C6FF      add  a, 0FFh
 AEDA   ED62      sbc  hl, hl  
 AEDC   23        inc  hl      
 AEDD   7C        ld   a, h    
 AEDE   B5        or   l       
 AEDF   CAF9AE    jp   z, Label144
 AEE2   210600    ld   hl, 0006h
 AEE5   ED5BE289  ld   de, (089E2h) 
 AEE9   B7        or   a       
 AEEA   ED52      sbc  hl, de  
 AEEC   22B889    ld   (089B8h), hl 
 AEEF   210400    ld   hl, 0004h
 AEF2   7D        ld   a, l    
 AEF3   323E8A    ld   (timer3), a  
 AEF6   C30BAF    jp   Label145

Label144:
 AEF9   210300    ld   hl, 0003h
 AEFC   7D        ld   a, l    
 AEFD   323E8A    ld   (timer3), a  
 AF00   210700    ld   hl, 0007h
 AF03   ED5BE289  ld   de, (089E2h) 
 AF07   19        add  hl, de  
 AF08   22B889    ld   (089B8h), hl 

Label145:
 AF0B   CDACDE    call Label15
 AF0E   AF        xor  a       
 AF0F   67        ld   h, a    
 AF10   3C        inc  a       
 AF11   A5        and  l       
 AF12   6F        ld   l, a    
 AF13   23        inc  hl      
 AF14   7D        ld   a, l    
 AF15   3D        dec  a       
 AF16   B4        or   h       
 AF17   2802      jr   z, Label146
 AF19   ED62      sbc  hl, hl  

Label146:
 AF1B   7C        ld   a, h    
 AF1C   B5        or   l       
 AF1D   CA37AF    jp   z, Label147
 AF20   210300    ld   hl, 0003h
 AF23   E5        push hl      
 AF24   CDACDE    call Label15
 AF27   ED5BC489  ld   de, (089C4h) 
 AF2B   CD6ADE    call Label16
 AF2E   23        inc  hl      
 AF2F   D1        pop  de      
 AF30   19        add  hl, de  
 AF31   22B689    ld   (089B6h), hl 
 AF34   C34EAF    jp   Label148

Label147:
 AF37   210400    ld   hl, 0004h
 AF3A   E5        push hl      
 AF3B   CDACDE    call Label15
 AF3E   ED5BC489  ld   de, (089C4h) 
 AF42   CD6ADE    call Label16
 AF45   23        inc  hl      
 AF46   D1        pop  de      
 AF47   EB        ex   de, hl  
 AF48   B7        or   a       
 AF49   ED52      sbc  hl, de  
 AF4B   22B689    ld   (089B6h), hl 

Label148:
 AF4E   CDF7B4    call Label91
 AF51   2A3B8A    ld   hl, (timer1max) 
 AF54   2600      ld   h, 00h
 AF56   11C3FF    ld   de, 0FFC3h
 AF59   19        add  hl, de  
 AF5A   ED62      sbc  hl, hl  
 AF5C   23        inc  hl      
 AF5D   7C        ld   a, h    
 AF5E   B5        or   l       
 AF5F   CA6FAF    jp   z, Label149
 AF62   216200    ld   hl, 0062h
 AF65   E5        push hl      
 AF66   2ABA89    ld   hl, (089BAh) 
 AF69   11EC86    ld   de, saveSScreen
 AF6C   19        add  hl, de  
 AF6D   D1        pop  de      
 AF6E   73        ld   (hl), e 

Label149:
 AF6F   C30EB0    jp   Label150

Label143:
 AF72   2AEA89    ld   hl, (089EAh) 
 AF75   7D        ld   a, l    
 AF76   3D        dec  a       
 AF77   B4        or   h       
 AF78   2802      jr   z, Label151
 AF7A   ED62      sbc  hl, hl  

Label151:
 AF7C   7C        ld   a, h    
 AF7D   B5        or   l       
 AF7E   CA98AF    jp   z, Label152
 AF81   210300    ld   hl, 0003h
 AF84   ED5BC489  ld   de, (089C4h) 
 AF88   B7        or   a       
 AF89   ED52      sbc  hl, de  
 AF8B   22B689    ld   (089B6h), hl 
 AF8E   210200    ld   hl, 0002h
 AF91   7D        ld   a, l    
 AF92   323E8A    ld   (timer3), a  
 AF95   C3AAAF    jp   Label153

Label152:
 AF98   210400    ld   hl, 0004h
 AF9B   ED5BC489  ld   de, (089C4h) 
 AF9F   19        add  hl, de  
 AFA0   22B689    ld   (089B6h), hl 
 AFA3   210100    ld   hl, 0001h
 AFA6   7D        ld   a, l    
 AFA7   323E8A    ld   (timer3), a  

Label153:
 AFAA   CDACDE    call Label15
 AFAD   AF        xor  a       
 AFAE   67        ld   h, a    
 AFAF   3C        inc  a       
 AFB0   A5        and  l       
 AFB1   6F        ld   l, a    
 AFB2   23        inc  hl      
 AFB3   7D        ld   a, l    
 AFB4   3D        dec  a       
 AFB5   B4        or   h       
 AFB6   2802      jr   z, Label154
 AFB8   ED62      sbc  hl, hl  

Label154:
 AFBA   7C        ld   a, h    
 AFBB   B5        or   l       
 AFBC   CAD6AF    jp   z, Label155
 AFBF   210600    ld   hl, 0006h
 AFC2   E5        push hl      
 AFC3   CDACDE    call Label15
 AFC6   ED5BE289  ld   de, (089E2h) 
 AFCA   CD6ADE    call Label16
 AFCD   23        inc  hl      
 AFCE   D1        pop  de      
 AFCF   19        add  hl, de  
 AFD0   22B889    ld   (089B8h), hl 
 AFD3   C3EDAF    jp   Label156

Label155:
 AFD6   210800    ld   hl, 0008h
 AFD9   E5        push hl      
 AFDA   CDACDE    call Label15
 AFDD   ED5BE289  ld   de, (089E2h) 
 AFE1   CD6ADE    call Label16
 AFE4   23        inc  hl      
 AFE5   D1        pop  de      
 AFE6   EB        ex   de, hl  
 AFE7   B7        or   a       
 AFE8   ED52      sbc  hl, de  
 AFEA   22B889    ld   (089B8h), hl 

Label156:
 AFED   CDF7B4    call Label91
 AFF0   2A3B8A    ld   hl, (timer1max) 
 AFF3   2600      ld   h, 00h
 AFF5   11C3FF    ld   de, 0FFC3h
 AFF8   19        add  hl, de  
 AFF9   ED62      sbc  hl, hl  
 AFFB   23        inc  hl      
 AFFC   7C        ld   a, h    
 AFFD   B5        or   l       
 AFFE   CA0EB0    jp   z, Label150
 B001   216200    ld   hl, 0062h
 B004   E5        push hl      
 B005   2ABA89    ld   hl, (089BAh) 
 B008   11EC86    ld   de, saveSScreen
 B00B   19        add  hl, de  
 B00C   D1        pop  de      
 B00D   73        ld   (hl), e 

Label150:
 B00E   2A3B8A    ld   hl, (timer1max) 
 B011   2600      ld   h, 00h
 B013   7D        ld   a, l    
 B014   D63D      sub  3Dh
 B016   B4        or   h       
 B017   C6FF      add  a, 0FFh
 B019   ED62      sbc  hl, hl  
 B01B   23        inc  hl      
 B01C   7C        ld   a, h    
 B01D   B5        or   l       
 B01E   CABBB0    jp   z, Label157
 B021   210100    ld   hl, 0001h
 B024   7D        ld   a, l    
 B025   325B8A    ld   (08A5Bh), a  

Label161:
 B028   2A578A    ld   hl, (08A57h) 
 B02B   AF        xor  a       
 B02C   BD        cp   l       
 B02D   ED62      sbc  hl, hl  
 B02F   23        inc  hl      
 B030   7C        ld   a, h    
 B031   B5        or   l       
 B032   CABBB0    jp   z, Label157
 B035   CDACDE    call Label15
 B038   110700    ld   de, 0007h
 B03B   CD6ADE    call Label16
 B03E   23        inc  hl      
 B03F   22B689    ld   (089B6h), hl 
 B042   CDACDE    call Label15
 B045   110D00    ld   de, 000Dh
 B048   CD6ADE    call Label16
 B04B   23        inc  hl      
 B04C   22B889    ld   (089B8h), hl 
 B04F   CDF7B4    call Label91
 B052   2ABA89    ld   hl, (089BAh) 
 B055   11EC86    ld   de, saveSScreen
 B058   19        add  hl, de  
 B059   6E        ld   l, (hl) 
 B05A   AF        xor  a       
 B05B   67        ld   h, a    
 B05C   B5        or   l       
 B05D   C2A2B0    jp   nz, Label158
 B060   210100    ld   hl, 0001h
 B063   7D        ld   a, l    
 B064   32578A    ld   (08A57h), a  
 B067   217000    ld   hl, 0070h
 B06A   E5        push hl      
 B06B   2ABA89    ld   hl, (089BAh) 
 B06E   11EC86    ld   de, saveSScreen
 B071   19        add  hl, de  
 B072   D1        pop  de      
 B073   73        ld   (hl), e 
 B074   2ABA89    ld   hl, (089BAh) 
 B077   11E000    ld   de, 00E0h
 B07A   19        add  hl, de  
 B07B   22C089    ld   (089C0h), hl 
 B07E   2ABA89    ld   hl, (089BAh) 
 B081   115001    ld   de, 00150h
 B084   19        add  hl, de  
 B085   22C289    ld   (089C2h), hl 
 B088   21CD00    ld   hl, 00CDh
 B08B   E5        push hl      
 B08C   2AC089    ld   hl, (089C0h) 
 B08F   11EC86    ld   de, saveSScreen
 B092   19        add  hl, de  
 B093   D1        pop  de      
 B094   73        ld   (hl), e 
 B095   210800    ld   hl, 0008h
 B098   E5        push hl      
 B099   2AC289    ld   hl, (089C2h) 
 B09C   11EC86    ld   de, saveSScreen
 B09F   19        add  hl, de  
 B0A0   D1        pop  de      
 B0A1   73        ld   (hl), e 

Label158:
 B0A2   2A598A    ld   hl, (08A59h) 
 B0A5   2600      ld   h, 00h
 B0A7   11FEFF    ld   de, 0FFFEh
 B0AA   19        add  hl, de  
 B0AB   ED62      sbc  hl, hl  
 B0AD   23        inc  hl      
 B0AE   7C        ld   a, h    
 B0AF   B5        or   l       
 B0B0   CAB8B0    jp   z, Label159
 B0B3   CDD1D5    call Label160
 B0B6   18EA      jr   Label158

Label159:
 B0B8   C328B0    jp   Label161

Label157:
 B0BB   2A5B8A    ld   hl, (08A5Bh) 
 B0BE   AF        xor  a       
 B0BF   67        ld   h, a    
 B0C0   B5        or   l       
 B0C1   C2C7B0    jp   nz, Label162
 B0C4   CD31D7    call Label163

Label162:
 B0C7   C9        ret          

Label96:
 B0C8   2ABA89    ld   hl, (089BAh) 
 B0CB   11EC86    ld   de, saveSScreen
 B0CE   19        add  hl, de  
 B0CF   6E        ld   l, (hl) 
 B0D0   2600      ld   h, 00h
 B0D2   7D        ld   a, l    
 B0D3   D662      sub  62h
 B0D5   B4        or   h       
 B0D6   C6FF      add  a, 0FFh
 B0D8   ED62      sbc  hl, hl  
 B0DA   23        inc  hl      
 B0DB   7C        ld   a, h    
 B0DC   B5        or   l       
 B0DD   CAFBB0    jp   z, Label164
 B0E0   2A3B8A    ld   hl, (timer1max) 
 B0E3   2600      ld   h, 00h
 B0E5   23        inc  hl      
 B0E6   7D        ld   a, l    
 B0E7   323B8A    ld   (timer1max), a  
 B0EA   216200    ld   hl, 0062h
 B0ED   7D        ld   a, l    
 B0EE   32438A    ld   (08A43h), a  
 B0F1   210100    ld   hl, 0001h
 B0F4   7D        ld   a, l    
 B0F5   324B8A    ld   (08A4Bh), a  
 B0F8   C31FB2    jp   Label165

Label164:
 B0FB   2ABA89    ld   hl, (089BAh) 
 B0FE   11EC86    ld   de, saveSScreen
 B101   19        add  hl, de  
 B102   6E        ld   l, (hl) 
 B103   2600      ld   h, 00h
 B105   7D        ld   a, l    
 B106   3D        dec  a       
 B107   B4        or   h       
 B108   2802      jr   z, Label166
 B10A   ED62      sbc  hl, hl  

Label166:
 B10C   7C        ld   a, h    
 B10D   B5        or   l       
 B10E   CA1BB1    jp   z, Label167
 B111   210100    ld   hl, 0001h
 B114   7D        ld   a, l    
 B115   32438A    ld   (08A43h), a  
 B118   C31FB2    jp   Label165

Label167:
 B11B   2ABA89    ld   hl, (089BAh) 
 B11E   11EC86    ld   de, saveSScreen
 B121   19        add  hl, de  
 B122   6E        ld   l, (hl) 
 B123   2600      ld   h, 00h
 B125   7D        ld   a, l    
 B126   D661      sub  61h
 B128   B4        or   h       
 B129   C6FF      add  a, 0FFh
 B12B   ED62      sbc  hl, hl  
 B12D   23        inc  hl      
 B12E   7C        ld   a, h    
 B12F   B5        or   l       
 B130   CA95B1    jp   z, Label168
 B133   216100    ld   hl, 0061h
 B136   7D        ld   a, l    
 B137   32438A    ld   (08A43h), a  
 B13A   2A538A    ld   hl, (08A53h) 
 B13D   AF        xor  a       
 B13E   67        ld   h, a    
 B13F   B5        or   l       
 B140   C292B1    jp   nz, Label169
 B143   2A3B8A    ld   hl, (timer1max) 
 B146   2600      ld   h, 00h
 B148   AF        xor  a       
 B149   11FCFF    ld   de, 0FFFCh
 B14C   19        add  hl, de  
 B14D   67        ld   h, a    
 B14E   17        rla          
 B14F   6F        ld   l, a    
 B150   B4        or   h       
 B151   CA6EB1    jp   z, Label170
 B154   2A3C8A    ld   hl, (timer2) 
 B157   2600      ld   h, 00h
 B159   E5        push hl      
 B15A   2A3B8A    ld   hl, (timer1max) 
 B15D   2600      ld   h, 00h
 B15F   110400    ld   de, 0004h
 B162   CD43DE    call Label171
 B165   D1        pop  de      
 B166   19        add  hl, de  
 B167   7D        ld   a, l    
 B168   323C8A    ld   (timer2), a  
 B16B   C378B1    jp   Label172

Label170:
 B16E   2A3C8A    ld   hl, (timer2) 
 B171   2600      ld   h, 00h
 B173   23        inc  hl      
 B174   7D        ld   a, l    
 B175   323C8A    ld   (timer2), a  

Label172:
 B178   2A538A    ld   hl, (08A53h) 
 B17B   AF        xor  a       
 B17C   67        ld   h, a    
 B17D   B5        or   l       
 B17E   C28BB1    jp   nz, Label173
 B181   2A5D8A    ld   hl, (08A5Dh) 
 B184   2600      ld   h, 00h
 B186   23        inc  hl      
 B187   7D        ld   a, l    
 B188   325D8A    ld   (08A5Dh), a  

Label173:
 B18B   210100    ld   hl, 0001h
 B18E   7D        ld   a, l    
 B18F   32538A    ld   (08A53h), a  

Label169:
 B192   C31FB2    jp   Label165

Label168:
 B195   2ABA89    ld   hl, (089BAh) 
 B198   11EC86    ld   de, saveSScreen
 B19B   19        add  hl, de  
 B19C   6E        ld   l, (hl) 
 B19D   2600      ld   h, 00h
 B19F   AF        xor  a       
 B1A0   11FDFF    ld   de, 0FFFDh
 B1A3   19        add  hl, de  
 B1A4   67        ld   h, a    
 B1A5   17        rla          
 B1A6   6F        ld   l, a    
 B1A7   E5        push hl      
 B1A8   2ABA89    ld   hl, (089BAh) 
 B1AB   11EC86    ld   de, saveSScreen
 B1AE   19        add  hl, de  
 B1AF   6E        ld   l, (hl) 
 B1B0   2600      ld   h, 00h
 B1B2   11F6FF    ld   de, 0FFF6h
 B1B5   19        add  hl, de  
 B1B6   ED62      sbc  hl, hl  
 B1B8   23        inc  hl      
 B1B9   D1        pop  de      
 B1BA   7D        ld   a, l    
 B1BB   A3        and  e       
 B1BC   6F        ld   l, a    
 B1BD   CAC6B1    jp   z, Label174
 B1C0   CD59C8    call Label175
 B1C3   C31FB2    jp   Label165

Label174:
 B1C6   2ABA89    ld   hl, (089BAh) 
 B1C9   11EC86    ld   de, saveSScreen
 B1CC   19        add  hl, de  
 B1CD   6E        ld   l, (hl) 
 B1CE   2600      ld   h, 00h
 B1D0   2D        dec  l       
 B1D1   7D        ld   a, l    
 B1D2   3D        dec  a       
 B1D3   B4        or   h       
 B1D4   2802      jr   z, Label176
 B1D6   ED62      sbc  hl, hl  

Label176:
 B1D8   E5        push hl      
 B1D9   2ABA89    ld   hl, (089BAh) 
 B1DC   11EC86    ld   de, saveSScreen
 B1DF   19        add  hl, de  
 B1E0   6E        ld   l, (hl) 
 B1E1   2600      ld   h, 00h
 B1E3   AF        xor  a       
 B1E4   119CFF    ld   de, 0FF9Ch
 B1E7   19        add  hl, de  
 B1E8   67        ld   h, a    
 B1E9   17        rla          
 B1EA   D1        pop  de      
 B1EB   B3        or   e       
 B1EC   6F        ld   l, a    
 B1ED   B4        or   h       
 B1EE   CA1FB2    jp   z, Label165
 B1F1   2ABA89    ld   hl, (089BAh) 
 B1F4   11EC86    ld   de, saveSScreen
 B1F7   19        add  hl, de  
 B1F8   6E        ld   l, (hl) 
 B1F9   2600      ld   h, 00h
 B1FB   7D        ld   a, l    
 B1FC   D670      sub  70h
 B1FE   B4        or   h       
 B1FF   C6FF      add  a, 0FFh
 B201   ED62      sbc  hl, hl  
 B203   23        inc  hl      
 B204   E5        push hl      
 B205   2A598A    ld   hl, (08A59h) 
 B208   2600      ld   h, 00h
 B20A   7D        ld   a, l    
 B20B   B4        or   h       
 B20C   2803      jr   z, Label177
 B20E   210100    ld   hl, 0001h

Label177:
 B211   D1        pop  de      
 B212   7D        ld   a, l    
 B213   A3        and  e       
 B214   6F        ld   l, a    
 B215   B4        or   h       
 B216   CA1CB2    jp   z, Label178
 B219   C31FB2    jp   Label165

Label178:
 B21C   CDD1BD    call Label179

Label165:
 B21F   C9        ret          

Label30:
 B220   CD94DF    call Label85
 B223   217298    ld   hl, appBackUpScreen
 B226   EF7450    bcall(_BufClr)     
 B229   EFD04B    bcall(_GrBufClr)     
 B22C   CD90B5    call Label180
 B22F   CD09B5    call Label181
 B232   210000    ld   hl, 0000h
 B235   7D        ld   a, l    
 B236   32438A    ld   (08A43h), a  
 B239   210000    ld   hl, 0000h
 B23C   1804      jr   Label182

Label203:
 B23E   2AB689    ld   hl, (089B6h) 
 B241   23        inc  hl      

Label182:
 B242   22B689    ld   (089B6h), hl 
 B245   EB        ex   de, hl  
 B246   210700    ld   hl, 0007h
 B249   B7        or   a       
 B24A   ED52      sbc  hl, de  
 B24C   DA90B4    jp   c, Label183
 B24F   210000    ld   hl, 0000h
 B252   1804      jr   Label184

Label202:
 B254   2AB889    ld   hl, (089B8h) 
 B257   23        inc  hl      

Label184:
 B258   22B889    ld   (089B8h), hl 
 B25B   EB        ex   de, hl  
 B25C   210D00    ld   hl, 000Dh
 B25F   B7        or   a       
 B260   ED52      sbc  hl, de  
 B262   DA8DB4    jp   c, Label185
 B265   2AB689    ld   hl, (089B6h) 
 B268   23        inc  hl      
 B269   54        ld   d, h    
 B26A   5D        ld   e, l    
 B26B   29        add  hl, hl  
 B26C   19        add  hl, de  
 B26D   29        add  hl, hl  
 B26E   19        add  hl, de  
 B26F   22E489    ld   (089E4h), hl 
 B272   2AB889    ld   hl, (089B8h) 
 B275   54        ld   d, h    
 B276   5D        ld   e, l    
 B277   29        add  hl, hl  
 B278   19        add  hl, de  
 B279   29        add  hl, hl  
 B27A   22E689    ld   (089E6h), hl 
 B27D   CDF7B4    call Label91
 B280   2A558A    ld   hl, (08A55h) 
 B283   2600      ld   h, 00h
 B285   7D        ld   a, l    
 B286   D614      sub  14h
 B288   B4        or   h       
 B289   C6FF      add  a, 0FFh
 B28B   ED62      sbc  hl, hl  
 B28D   23        inc  hl      
 B28E   7C        ld   a, h    
 B28F   B5        or   l       
 B290   CABEB2    jp   z, Label186
 B293   2ABA89    ld   hl, (089BAh) 
 B296   11EC86    ld   de, saveSScreen
 B299   19        add  hl, de  
 B29A   6E        ld   l, (hl) 
 B29B   2600      ld   h, 00h
 B29D   7C        ld   a, h    
 B29E   2D        dec  l       
 B29F   B5        or   l       
 B2A0   2803      jr   z, Label187
 B2A2   210100    ld   hl, 0001h

Label187:
 B2A5   7C        ld   a, h    
 B2A6   B5        or   l       
 B2A7   CABEB2    jp   z, Label186
 B2AA   2AE689    ld   hl, (089E6h) 
 B2AD   E5        push hl      
 B2AE   2AE489    ld   hl, (089E4h) 
 B2B1   E5        push hl      
 B2B2   215AE3    ld   hl, Str71
 B2B5   E5        push hl      
 B2B6   DDE1      pop  ix      
 B2B8   216798    ld   hl, flashByte1
 B2BB   CD08DF    call Label188

Label186:
 B2BE   2ABA89    ld   hl, (089BAh) 
 B2C1   11EC86    ld   de, saveSScreen
 B2C4   19        add  hl, de  
 B2C5   6E        ld   l, (hl) 
 B2C6   2600      ld   h, 00h
 B2C8   7D        ld   a, l    
 B2C9   3D        dec  a       
 B2CA   B4        or   h       
 B2CB   2802      jr   z, Label189
 B2CD   ED62      sbc  hl, hl  

Label189:
 B2CF   7C        ld   a, h    
 B2D0   B5        or   l       
 B2D1   CA6CB3    jp   z, Label190
 B2D4   CDACDE    call Label15
 B2D7   3A3B8A    ld   a, (timer1max)  
 B2DA   5F        ld   e, a    
 B2DB   1600      ld   d, 00h
 B2DD   CD6ADE    call Label16
 B2E0   23        inc  hl      
 B2E1   22DC89    ld   (089DCh), hl 
 B2E4   AF        xor  a       
 B2E5   11E1FF    ld   de, 0FFE1h
 B2E8   19        add  hl, de  
 B2E9   67        ld   h, a    
 B2EA   17        rla          
 B2EB   6F        ld   l, a    
 B2EC   B4        or   h       
 B2ED   CAFAB2    jp   z, Label191
 B2F0   210700    ld   hl, 0007h
 B2F3   7D        ld   a, l    
 B2F4   325E8A    ld   (08A5Eh), a  
 B2F7   C352B3    jp   Label192

Label191:
 B2FA   2ADC89    ld   hl, (089DCh) 
 B2FD   AF        xor  a       
 B2FE   11EBFF    ld   de, 0FFEBh
 B301   19        add  hl, de  
 B302   67        ld   h, a    
 B303   17        rla          
 B304   6F        ld   l, a    
 B305   B4        or   h       
 B306   CA32B3    jp   z, Label193
 B309   CDACDE    call Label15
 B30C   AF        xor  a       
 B30D   67        ld   h, a    
 B30E   3C        inc  a       
 B30F   A5        and  l       
 B310   6F        ld   l, a    
 B311   23        inc  hl      
 B312   7D        ld   a, l    
 B313   3D        dec  a       
 B314   B4        or   h       
 B315   2802      jr   z, Label194
 B317   ED62      sbc  hl, hl  

Label194:
 B319   7C        ld   a, h    
 B31A   B5        or   l       
 B31B   CA28B3    jp   z, Label195
 B31E   210400    ld   hl, 0004h
 B321   7D        ld   a, l    
 B322   325E8A    ld   (08A5Eh), a  
 B325   C32FB3    jp   Label196

Label195:
 B328   210500    ld   hl, 0005h
 B32B   7D        ld   a, l    
 B32C   325E8A    ld   (08A5Eh), a  

Label196:
 B32F   C352B3    jp   Label192

Label193:
 B332   2ADC89    ld   hl, (089DCh) 
 B335   AF        xor  a       
 B336   11F5FF    ld   de, 0FFF5h
 B339   19        add  hl, de  
 B33A   67        ld   h, a    
 B33B   17        rla          
 B33C   6F        ld   l, a    
 B33D   B4        or   h       
 B33E   CA4BB3    jp   z, Label197
 B341   210300    ld   hl, 0003h
 B344   7D        ld   a, l    
 B345   325E8A    ld   (08A5Eh), a  
 B348   C352B3    jp   Label192

Label197:
 B34B   210200    ld   hl, 0002h
 B34E   7D        ld   a, l    
 B34F   325E8A    ld   (08A5Eh), a  

Label192:
 B352   2AE689    ld   hl, (089E6h) 
 B355   E5        push hl      
 B356   2AE489    ld   hl, (089E4h) 
 B359   E5        push hl      
 B35A   2A5E8A    ld   hl, (08A5Eh) 
 B35D   2600      ld   h, 00h
 B35F   29        add  hl, hl  
 B360   29        add  hl, hl  
 B361   29        add  hl, hl  
 B362   11B2E1    ld   de, Str72
 B365   19        add  hl, de  
 B366   CD02DF    call Label198
 B369   C38AB4    jp   Label199

Label190:
 B36C   2ABA89    ld   hl, (089BAh) 
 B36F   11EC86    ld   de, saveSScreen
 B372   19        add  hl, de  
 B373   6E        ld   l, (hl) 
 B374   2600      ld   h, 00h
 B376   AF        xor  a       
 B377   11FEFF    ld   de, 0FFFEh
 B37A   19        add  hl, de  
 B37B   67        ld   h, a    
 B37C   17        rla          
 B37D   6F        ld   l, a    
 B37E   E5        push hl      
 B37F   2ABA89    ld   hl, (089BAh) 
 B382   11EC86    ld   de, saveSScreen
 B385   19        add  hl, de  
 B386   6E        ld   l, (hl) 
 B387   2600      ld   h, 00h
 B389   11F6FF    ld   de, 0FFF6h
 B38C   19        add  hl, de  
 B38D   ED62      sbc  hl, hl  
 B38F   23        inc  hl      
 B390   D1        pop  de      
 B391   7D        ld   a, l    
 B392   A3        and  e       
 B393   6F        ld   l, a    
 B394   CAE0B3    jp   z, Label200
 B397   2AE689    ld   hl, (089E6h) 
 B39A   E5        push hl      
 B39B   2AE489    ld   hl, (089E4h) 
 B39E   E5        push hl      
 B39F   2ABA89    ld   hl, (089BAh) 
 B3A2   11EC86    ld   de, saveSScreen
 B3A5   19        add  hl, de  
 B3A6   6E        ld   l, (hl) 
 B3A7   2600      ld   h, 00h
 B3A9   110700    ld   de, 0007h
 B3AC   19        add  hl, de  
 B3AD   29        add  hl, hl  
 B3AE   29        add  hl, hl  
 B3AF   29        add  hl, hl  
 B3B0   11B2E1    ld   de, Str72
 B3B3   19        add  hl, de  
 B3B4   CD02DF    call Label198
 B3B7   2AE689    ld   hl, (089E6h) 
 B3BA   E5        push hl      
 B3BB   2AE489    ld   hl, (089E4h) 
 B3BE   E5        push hl      
 B3BF   2ABA89    ld   hl, (089BAh) 
 B3C2   11EC86    ld   de, saveSScreen
 B3C5   19        add  hl, de  
 B3C6   6E        ld   l, (hl) 
 B3C7   2600      ld   h, 00h
 B3C9   110F00    ld   de, 000Fh
 B3CC   19        add  hl, de  
 B3CD   29        add  hl, hl  
 B3CE   29        add  hl, hl  
 B3CF   29        add  hl, hl  
 B3D0   11B2E1    ld   de, Str72
 B3D3   19        add  hl, de  
 B3D4   E5        push hl      
 B3D5   DDE1      pop  ix      
 B3D7   216798    ld   hl, flashByte1
 B3DA   CD08DF    call Label188
 B3DD   C38AB4    jp   Label199

Label200:
 B3E0   2ABA89    ld   hl, (089BAh) 
 B3E3   11EC86    ld   de, saveSScreen
 B3E6   19        add  hl, de  
 B3E7   6E        ld   l, (hl) 
 B3E8   2600      ld   h, 00h
 B3EA   AF        xor  a       
 B3EB   11F5FF    ld   de, 0FFF5h
 B3EE   19        add  hl, de  
 B3EF   67        ld   h, a    
 B3F0   17        rla          
 B3F1   6F        ld   l, a    
 B3F2   E5        push hl      
 B3F3   2ABA89    ld   hl, (089BAh) 
 B3F6   11EC86    ld   de, saveSScreen
 B3F9   19        add  hl, de  
 B3FA   6E        ld   l, (hl) 
 B3FB   2600      ld   h, 00h
 B3FD   119CFF    ld   de, 0FF9Ch
 B400   19        add  hl, de  
 B401   ED62      sbc  hl, hl  
 B403   23        inc  hl      
 B404   D1        pop  de      
 B405   7D        ld   a, l    
 B406   A3        and  e       
 B407   6F        ld   l, a    
 B408   CA2EB4    jp   z, Label201
 B40B   2AE689    ld   hl, (089E6h) 
 B40E   E5        push hl      
 B40F   2AE489    ld   hl, (089E4h) 
 B412   E5        push hl      
 B413   2ABA89    ld   hl, (089BAh) 
 B416   11EC86    ld   de, saveSScreen
 B419   19        add  hl, de  
 B41A   6E        ld   l, (hl) 
 B41B   2600      ld   h, 00h
 B41D   11A5FF    ld   de, 0FFA5h
 B420   19        add  hl, de  
 B421   29        add  hl, hl  
 B422   29        add  hl, hl  
 B423   29        add  hl, hl  
 B424   11B2E1    ld   de, Str72
 B427   19        add  hl, de  
 B428   CD02DF    call Label198
 B42B   C38AB4    jp   Label199

Label201:
 B42E   2ABA89    ld   hl, (089BAh) 
 B431   11EC86    ld   de, saveSScreen
 B434   19        add  hl, de  
 B435   6E        ld   l, (hl) 
 B436   2600      ld   h, 00h
 B438   AF        xor  a       
 B439   119CFF    ld   de, 0FF9Ch
 B43C   19        add  hl, de  
 B43D   67        ld   h, a    
 B43E   17        rla          
 B43F   6F        ld   l, a    
 B440   B4        or   h       
 B441   CA8AB4    jp   z, Label199
 B444   2AE689    ld   hl, (089E6h) 
 B447   E5        push hl      
 B448   2AE489    ld   hl, (089E4h) 
 B44B   E5        push hl      
 B44C   2ABA89    ld   hl, (089BAh) 
 B44F   11EC86    ld   de, saveSScreen
 B452   19        add  hl, de  
 B453   6E        ld   l, (hl) 
 B454   2600      ld   h, 00h
 B456   11B5FF    ld   de, 0FFB5h
 B459   19        add  hl, de  
 B45A   29        add  hl, hl  
 B45B   29        add  hl, hl  
 B45C   29        add  hl, hl  
 B45D   11B2E1    ld   de, Str72
 B460   19        add  hl, de  
 B461   CD02DF    call Label198
 B464   2AE689    ld   hl, (089E6h) 
 B467   E5        push hl      
 B468   2AE489    ld   hl, (089E4h) 
 B46B   E5        push hl      
 B46C   2ABA89    ld   hl, (089BAh) 
 B46F   11EC86    ld   de, saveSScreen
 B472   19        add  hl, de  
 B473   6E        ld   l, (hl) 
 B474   2600      ld   h, 00h
 B476   11C2FF    ld   de, 0FFC2h
 B479   19        add  hl, de  
 B47A   29        add  hl, hl  
 B47B   29        add  hl, hl  
 B47C   29        add  hl, hl  
 B47D   11B2E1    ld   de, Str72
 B480   19        add  hl, de  
 B481   E5        push hl      
 B482   DDE1      pop  ix      
 B484   216798    ld   hl, flashByte1
 B487   CD08DF    call Label188

Label199:
 B48A   C354B2    jp   Label202

Label185:
 B48D   C33EB2    jp   Label203

Label183:
 B490   2A478A    ld   hl, (08A47h) 
 B493   2600      ld   h, 00h
 B495   7D        ld   a, l    
 B496   B4        or   h       
 B497   2803      jr   z, Label204
 B499   210100    ld   hl, 0001h

Label204:
 B49C   7C        ld   a, h    
 B49D   B5        or   l       
 B49E   CACEB4    jp   z, Label205
 B4A1   217298    ld   hl, appBackUpScreen
 B4A4   CD87DF    call Label206
 B4A7   2A478A    ld   hl, (08A47h) 
 B4AA   2600      ld   h, 00h
 B4AC   23        inc  hl      
 B4AD   7D        ld   a, l    
 B4AE   32478A    ld   (08A47h), a  
 B4B1   2600      ld   h, 00h
 B4B3   7D        ld   a, l    
 B4B4   D60C      sub  0Ch
 B4B6   B4        or   h       
 B4B7   C6FF      add  a, 0FFh
 B4B9   ED62      sbc  hl, hl  
 B4BB   23        inc  hl      
 B4BC   7C        ld   a, h    
 B4BD   B5        or   l       
 B4BE   CACEB4    jp   z, Label205
 B4C1   210000    ld   hl, 0000h
 B4C4   7D        ld   a, l    
 B4C5   32478A    ld   (08A47h), a  
 B4C8   217298    ld   hl, appBackUpScreen
 B4CB   CD87DF    call Label206

Label205:
 B4CE   2A528A    ld   hl, (08A52h) 
 B4D1   2600      ld   h, 00h
 B4D3   7D        ld   a, l    
 B4D4   D614      sub  14h
 B4D6   B4        or   h       
 B4D7   C6FF      add  a, 0FFh
 B4D9   ED62      sbc  hl, hl  
 B4DB   23        inc  hl      
 B4DC   7C        ld   a, h    
 B4DD   B5        or   l       
 B4DE   CAF3B4    jp   z, Label207
 B4E1   210000    ld   hl, 0000h
 B4E4   E5        push hl      
 B4E5   210700    ld   hl, 0007h
 B4E8   E5        push hl      
 B4E9   215400    ld   hl, 0054h
 B4EC   E5        push hl      
 B4ED   213800    ld   hl, 0038h
 B4F0   CD74E0    call Label208

Label207:
 B4F3   CDE7DF    call Label209
 B4F6   C9        ret          

Label91:
 B4F7   2AB689    ld   hl, (089B6h) 
 B4FA   110E00    ld   de, 000Eh
 B4FD   CD5EE0    call Label210
 B500   ED5BB889  ld   de, (089B8h) 
 B504   19        add  hl, de  
 B505   22BA89    ld   (089BAh), hl 
 B508   C9        ret          

Label181:
 B509   215500    ld   hl, 0055h
 B50C   E5        push hl      
 B50D   210800    ld   hl, 0008h
 B510   E5        push hl      
 B511   21B2E1    ld   hl, Str72
 B514   CD02DF    call Label198
 B517   2A3D8A    ld   hl, (timer2max) 
 B51A   2600      ld   h, 00h
 B51C   119CFF    ld   de, 0FF9Ch
 B51F   19        add  hl, de  
 B520   ED62      sbc  hl, hl  
 B522   23        inc  hl      
 B523   7C        ld   a, h    
 B524   B5        or   l       
 B525   CA40B5    jp   z, Label211
 B528   215600    ld   hl, 0056h
 B52B   22D786    ld   (penCol), hl 
 B52E   211100    ld   hl, 0011h
 B531   7D        ld   a, l    
 B532   32D886    ld   (penRow), a  
 B535   2A3D8A    ld   hl, (timer2max) 
 B538   2600      ld   h, 00h
 B53A   CDDBDF    call Label212
 B53D   C355B5    jp   Label213

Label211:
 B540   215300    ld   hl, 0053h
 B543   22D786    ld   (penCol), hl 
 B546   211100    ld   hl, 0011h
 B549   7D        ld   a, l    
 B54A   32D886    ld   (penRow), a  
 B54D   2A3D8A    ld   hl, (timer2max) 
 B550   2600      ld   h, 00h
 B552   CDDBDF    call Label212

Label213:
 B555   215500    ld   hl, 0055h
 B558   E5        push hl      
 B559   211A00    ld   hl, 001Ah
 B55C   E5        push hl      
 B55D   21BAE1    ld   hl, Str73
 B560   CD02DF    call Label198
 B563   215600    ld   hl, 0056h
 B566   22D786    ld   (penCol), hl 
 B569   212300    ld   hl, 0023h
 B56C   7D        ld   a, l    
 B56D   32D886    ld   (penRow), a  
 B570   2A468A    ld   hl, (08A46h) 
 B573   2600      ld   h, 00h
 B575   CDDBDF    call Label212
 B578   2A538A    ld   hl, (08A53h) 
 B57B   AF        xor  a       
 B57C   67        ld   h, a    
 B57D   B5        or   l       
 B57E   CA8FB5    jp   z, Label214
 B581   215500    ld   hl, 0055h
 B584   E5        push hl      
 B585   213000    ld   hl, 0030h
 B588   E5        push hl      
 B589   2172E3    ld   hl, Str74
 B58C   CD02DF    call Label198

Label214:
 B58F   C9        ret          

Label180:
 B590   2A438A    ld   hl, (08A43h) 
 B593   AF        xor  a       
 B594   67        ld   h, a    
 B595   B5        or   l       
 B596   C2AFB5    jp   nz, Label215
 B599   210100    ld   hl, 0001h
 B59C   22D786    ld   (penCol), hl 
 B59F   210000    ld   hl, 0000h
 B5A2   7D        ld   a, l    
 B5A3   32D886    ld   (penRow), a  
 B5A6   2105E7    ld   hl, Str75
 B5A9   EF6145    bcall(_VPutS)     
 B5AC   C39EB8    jp   Label216

Label215:
 B5AF   2A438A    ld   hl, (08A43h) 
 B5B2   2600      ld   h, 00h
 B5B4   7D        ld   a, l    
 B5B5   3D        dec  a       
 B5B6   B4        or   h       
 B5B7   2802      jr   z, Label217
 B5B9   ED62      sbc  hl, hl  

Label217:
 B5BB   7C        ld   a, h    
 B5BC   B5        or   l       
 B5BD   CAD6B5    jp   z, Label218
 B5C0   210100    ld   hl, 0001h
 B5C3   22D786    ld   (penCol), hl 
 B5C6   210000    ld   hl, 0000h
 B5C9   7D        ld   a, l    
 B5CA   32D886    ld   (penRow), a  
 B5CD   2158E7    ld   hl, Str76
 B5D0   EF6145    bcall(_VPutS)     
 B5D3   C39EB8    jp   Label216

Label218:
 B5D6   2A438A    ld   hl, (08A43h) 
 B5D9   2600      ld   h, 00h
 B5DB   7D        ld   a, l    
 B5DC   D662      sub  62h
 B5DE   B4        or   h       
 B5DF   C6FF      add  a, 0FFh
 B5E1   ED62      sbc  hl, hl  
 B5E3   23        inc  hl      
 B5E4   7C        ld   a, h    
 B5E5   B5        or   l       
 B5E6   CAB6B6    jp   z, Label219
 B5E9   2A3B8A    ld   hl, (timer1max) 
 B5EC   2600      ld   h, 00h
 B5EE   7D        ld   a, l    
 B5EF   3D        dec  a       
 B5F0   B4        or   h       
 B5F1   2802      jr   z, Label220
 B5F3   ED62      sbc  hl, hl  

Label220:
 B5F5   7C        ld   a, h    
 B5F6   B5        or   l       
 B5F7   CA10B6    jp   z, Label221
 B5FA   210100    ld   hl, 0001h
 B5FD   22D786    ld   (penCol), hl 
 B600   210000    ld   hl, 0000h
 B603   7D        ld   a, l    
 B604   32D886    ld   (penRow), a  
 B607   2146ED    ld   hl, Str77
 B60A   EF6145    bcall(_VPutS)     
 B60D   C3B3B6    jp   Label222

Label221:
 B610   2A3B8A    ld   hl, (timer1max) 
 B613   2600      ld   h, 00h
 B615   7D        ld   a, l    
 B616   D60B      sub  0Bh
 B618   B4        or   h       
 B619   C6FF      add  a, 0FFh
 B61B   ED62      sbc  hl, hl  
 B61D   23        inc  hl      
 B61E   7C        ld   a, h    
 B61F   B5        or   l       
 B620   CA39B6    jp   z, Label223
 B623   210100    ld   hl, 0001h
 B626   22D786    ld   (penCol), hl 
 B629   210000    ld   hl, 0000h
 B62C   7D        ld   a, l    
 B62D   32D886    ld   (penRow), a  
 B630   215BED    ld   hl, Str78
 B633   EF6145    bcall(_VPutS)     
 B636   C3B3B6    jp   Label222

Label223:
 B639   2A3B8A    ld   hl, (timer1max) 
 B63C   2600      ld   h, 00h
 B63E   7D        ld   a, l    
 B63F   D615      sub  15h
 B641   B4        or   h       
 B642   C6FF      add  a, 0FFh
 B644   ED62      sbc  hl, hl  
 B646   23        inc  hl      
 B647   7C        ld   a, h    
 B648   B5        or   l       
 B649   CA62B6    jp   z, Label224
 B64C   210100    ld   hl, 0001h
 B64F   22D786    ld   (penCol), hl 
 B652   210000    ld   hl, 0000h
 B655   7D        ld   a, l    
 B656   32D886    ld   (penRow), a  
 B659   2174ED    ld   hl, Str79
 B65C   EF6145    bcall(_VPutS)     
 B65F   C3B3B6    jp   Label222

Label224:
 B662   2A3B8A    ld   hl, (timer1max) 
 B665   2600      ld   h, 00h
 B667   7D        ld   a, l    
 B668   D61F      sub  1Fh
 B66A   B4        or   h       
 B66B   C6FF      add  a, 0FFh
 B66D   ED62      sbc  hl, hl  
 B66F   23        inc  hl      
 B670   7C        ld   a, h    
 B671   B5        or   l       
 B672   CA8BB6    jp   z, Label225
 B675   210100    ld   hl, 0001h
 B678   22D786    ld   (penCol), hl 
 B67B   210000    ld   hl, 0000h
 B67E   7D        ld   a, l    
 B67F   32D886    ld   (penRow), a  
 B682   2191ED    ld   hl, Str80
 B685   EF6145    bcall(_VPutS)     
 B688   C3B3B6    jp   Label222

Label225:
 B68B   210100    ld   hl, 0001h
 B68E   22D786    ld   (penCol), hl 
 B691   210000    ld   hl, 0000h
 B694   7D        ld   a, l    
 B695   32D886    ld   (penRow), a  
 B698   2166E7    ld   hl, Str81
 B69B   EF6145    bcall(_VPutS)     
 B69E   213500    ld   hl, 0035h
 B6A1   22D786    ld   (penCol), hl 
 B6A4   210000    ld   hl, 0000h
 B6A7   7D        ld   a, l    
 B6A8   32D886    ld   (penRow), a  
 B6AB   2A3B8A    ld   hl, (timer1max) 
 B6AE   2600      ld   h, 00h
 B6B0   CDDBDF    call Label212

Label222:
 B6B3   C39EB8    jp   Label216

Label219:
 B6B6   2A438A    ld   hl, (08A43h) 
 B6B9   2600      ld   h, 00h
 B6BB   7D        ld   a, l    
 B6BC   D661      sub  61h
 B6BE   B4        or   h       
 B6BF   C6FF      add  a, 0FFh
 B6C1   ED62      sbc  hl, hl  
 B6C3   23        inc  hl      
 B6C4   7C        ld   a, h    
 B6C5   B5        or   l       
 B6C6   CADFB6    jp   z, Label226
 B6C9   210100    ld   hl, 0001h
 B6CC   22D786    ld   (penCol), hl 
 B6CF   210000    ld   hl, 0000h
 B6D2   7D        ld   a, l    
 B6D3   32D886    ld   (penRow), a  
 B6D6   2176E7    ld   hl, Str82
 B6D9   EF6145    bcall(_VPutS)     
 B6DC   C39EB8    jp   Label216

Label226:
 B6DF   2A438A    ld   hl, (08A43h) 
 B6E2   2600      ld   h, 00h
 B6E4   7D        ld   a, l    
 B6E5   D663      sub  63h
 B6E7   B4        or   h       
 B6E8   C6FF      add  a, 0FFh
 B6EA   ED62      sbc  hl, hl  
 B6EC   23        inc  hl      
 B6ED   7C        ld   a, h    
 B6EE   B5        or   l       
 B6EF   CA08B7    jp   z, Label227
 B6F2   210100    ld   hl, 0001h
 B6F5   22D786    ld   (penCol), hl 
 B6F8   210000    ld   hl, 0000h
 B6FB   7D        ld   a, l    
 B6FC   32D886    ld   (penRow), a  
 B6FF   218DE7    ld   hl, Str83
 B702   EF6145    bcall(_VPutS)     
 B705   C39EB8    jp   Label216

Label227:
 B708   2A438A    ld   hl, (08A43h) 
 B70B   2600      ld   h, 00h
 B70D   2D        dec  l       
 B70E   7D        ld   a, l    
 B70F   3D        dec  a       
 B710   B4        or   h       
 B711   2802      jr   z, Label228
 B713   ED62      sbc  hl, hl  

Label228:
 B715   7C        ld   a, h    
 B716   B5        or   l       
 B717   CA30B7    jp   z, Label229
 B71A   210100    ld   hl, 0001h
 B71D   22D786    ld   (penCol), hl 
 B720   210000    ld   hl, 0000h
 B723   7D        ld   a, l    
 B724   32D886    ld   (penRow), a  
 B727   21A0E7    ld   hl, Str84
 B72A   EF6145    bcall(_VPutS)     
 B72D   C39EB8    jp   Label216

Label229:
 B730   2A438A    ld   hl, (08A43h) 
 B733   2600      ld   h, 00h
 B735   7D        ld   a, l    
 B736   D603      sub  03h
 B738   B4        or   h       
 B739   C6FF      add  a, 0FFh
 B73B   ED62      sbc  hl, hl  
 B73D   23        inc  hl      
 B73E   7C        ld   a, h    
 B73F   B5        or   l       
 B740   CA59B7    jp   z, Label230
 B743   210100    ld   hl, 0001h
 B746   22D786    ld   (penCol), hl 
 B749   210000    ld   hl, 0000h
 B74C   7D        ld   a, l    
 B74D   32D886    ld   (penRow), a  
 B750   21ACE7    ld   hl, Str85
 B753   EF6145    bcall(_VPutS)     
 B756   C39EB8    jp   Label216

Label230:
 B759   2A438A    ld   hl, (08A43h) 
 B75C   2600      ld   h, 00h
 B75E   7D        ld   a, l    
 B75F   D604      sub  04h
 B761   B4        or   h       
 B762   C6FF      add  a, 0FFh
 B764   ED62      sbc  hl, hl  
 B766   23        inc  hl      
 B767   7C        ld   a, h    
 B768   B5        or   l       
 B769   CA82B7    jp   z, Label231
 B76C   210100    ld   hl, 0001h
 B76F   22D786    ld   (penCol), hl 
 B772   210000    ld   hl, 0000h
 B775   7D        ld   a, l    
 B776   32D886    ld   (penRow), a  
 B779   21C1E7    ld   hl, Str86
 B77C   EF6145    bcall(_VPutS)     
 B77F   C39EB8    jp   Label216

Label231:
 B782   2A438A    ld   hl, (08A43h) 
 B785   2600      ld   h, 00h
 B787   7D        ld   a, l    
 B788   D605      sub  05h
 B78A   B4        or   h       
 B78B   C6FF      add  a, 0FFh
 B78D   ED62      sbc  hl, hl  
 B78F   23        inc  hl      
 B790   7C        ld   a, h    
 B791   B5        or   l       
 B792   CAABB7    jp   z, Label232
 B795   210100    ld   hl, 0001h
 B798   22D786    ld   (penCol), hl 
 B79B   210000    ld   hl, 0000h
 B79E   7D        ld   a, l    
 B79F   32D886    ld   (penRow), a  
 B7A2   21CCE7    ld   hl, Str87
 B7A5   EF6145    bcall(_VPutS)     
 B7A8   C39EB8    jp   Label216

Label232:
 B7AB   2A438A    ld   hl, (08A43h) 
 B7AE   2600      ld   h, 00h
 B7B0   7D        ld   a, l    
 B7B1   D606      sub  06h
 B7B3   B4        or   h       
 B7B4   C6FF      add  a, 0FFh
 B7B6   ED62      sbc  hl, hl  
 B7B8   23        inc  hl      
 B7B9   7C        ld   a, h    
 B7BA   B5        or   l       
 B7BB   CAD4B7    jp   z, Label233
 B7BE   210100    ld   hl, 0001h
 B7C1   22D786    ld   (penCol), hl 
 B7C4   210000    ld   hl, 0000h
 B7C7   7D        ld   a, l    
 B7C8   32D886    ld   (penRow), a  
 B7CB   21DEE7    ld   hl, Str88
 B7CE   EF6145    bcall(_VPutS)     
 B7D1   C39EB8    jp   Label216

Label233:
 B7D4   2A438A    ld   hl, (08A43h) 
 B7D7   2600      ld   h, 00h
 B7D9   7D        ld   a, l    
 B7DA   D607      sub  07h
 B7DC   B4        or   h       
 B7DD   C6FF      add  a, 0FFh
 B7DF   ED62      sbc  hl, hl  
 B7E1   23        inc  hl      
 B7E2   7C        ld   a, h    
 B7E3   B5        or   l       
 B7E4   CAFDB7    jp   z, Label234
 B7E7   210100    ld   hl, 0001h
 B7EA   22D786    ld   (penCol), hl 
 B7ED   210000    ld   hl, 0000h
 B7F0   7D        ld   a, l    
 B7F1   32D886    ld   (penRow), a  
 B7F4   21F2E7    ld   hl, Str89
 B7F7   EF6145    bcall(_VPutS)     
 B7FA   C39EB8    jp   Label216

Label234:
 B7FD   2A438A    ld   hl, (08A43h) 
 B800   2600      ld   h, 00h
 B802   7D        ld   a, l    
 B803   D608      sub  08h
 B805   B4        or   h       
 B806   C6FF      add  a, 0FFh
 B808   ED62      sbc  hl, hl  
 B80A   23        inc  hl      
 B80B   7C        ld   a, h    
 B80C   B5        or   l       
 B80D   CA26B8    jp   z, Label235
 B810   210100    ld   hl, 0001h
 B813   22D786    ld   (penCol), hl 
 B816   210000    ld   hl, 0000h
 B819   7D        ld   a, l    
 B81A   32D886    ld   (penRow), a  
 B81D   210CE8    ld   hl, Str90
 B820   EF6145    bcall(_VPutS)     
 B823   C39EB8    jp   Label216

Label235:
 B826   2A438A    ld   hl, (08A43h) 
 B829   2600      ld   h, 00h
 B82B   7D        ld   a, l    
 B82C   D609      sub  09h
 B82E   B4        or   h       
 B82F   C6FF      add  a, 0FFh
 B831   ED62      sbc  hl, hl  
 B833   23        inc  hl      
 B834   7C        ld   a, h    
 B835   B5        or   l       
 B836   CA4FB8    jp   z, Label236
 B839   210100    ld   hl, 0001h
 B83C   22D786    ld   (penCol), hl 
 B83F   210000    ld   hl, 0000h
 B842   7D        ld   a, l    
 B843   32D886    ld   (penRow), a  
 B846   2125E8    ld   hl, Str91
 B849   EF6145    bcall(_VPutS)     
 B84C   C39EB8    jp   Label216

Label236:
 B84F   2A438A    ld   hl, (08A43h) 
 B852   2600      ld   h, 00h
 B854   7D        ld   a, l    
 B855   D60A      sub  0Ah
 B857   B4        or   h       
 B858   C6FF      add  a, 0FFh
 B85A   ED62      sbc  hl, hl  
 B85C   23        inc  hl      
 B85D   7C        ld   a, h    
 B85E   B5        or   l       
 B85F   CA78B8    jp   z, Label237
 B862   210100    ld   hl, 0001h
 B865   22D786    ld   (penCol), hl 
 B868   210000    ld   hl, 0000h
 B86B   7D        ld   a, l    
 B86C   32D886    ld   (penRow), a  
 B86F   213BE8    ld   hl, Str92
 B872   EF6145    bcall(_VPutS)     
 B875   C39EB8    jp   Label216

Label237:
 B878   2A438A    ld   hl, (08A43h) 
 B87B   2600      ld   h, 00h
 B87D   7D        ld   a, l    
 B87E   D60C      sub  0Ch
 B880   B4        or   h       
 B881   C6FF      add  a, 0FFh
 B883   ED62      sbc  hl, hl  
 B885   23        inc  hl      
 B886   7C        ld   a, h    
 B887   B5        or   l       
 B888   CA9EB8    jp   z, Label216
 B88B   210100    ld   hl, 0001h
 B88E   22D786    ld   (penCol), hl 
 B891   210000    ld   hl, 0000h
 B894   7D        ld   a, l    
 B895   32D886    ld   (penRow), a  
 B898   2161E8    ld   hl, Str93
 B89B   EF6145    bcall(_VPutS)     

Label216:
 B89E   2A438A    ld   hl, (08A43h) 
 B8A1   2600      ld   h, 00h
 B8A3   7D        ld   a, l    
 B8A4   D60B      sub  0Bh
 B8A6   B4        or   h       
 B8A7   C6FF      add  a, 0FFh
 B8A9   ED62      sbc  hl, hl  
 B8AB   23        inc  hl      
 B8AC   7C        ld   a, h    
 B8AD   B5        or   l       
 B8AE   CAC7B8    jp   z, Label238
 B8B1   210100    ld   hl, 0001h
 B8B4   22D786    ld   (penCol), hl 
 B8B7   210000    ld   hl, 0000h
 B8BA   7D        ld   a, l    
 B8BB   32D886    ld   (penRow), a  
 B8BE   214CE8    ld   hl, Str94
 B8C1   EF6145    bcall(_VPutS)     
 B8C4   C368B9    jp   Label239

Label238:
 B8C7   2A438A    ld   hl, (08A43h) 
 B8CA   2600      ld   h, 00h
 B8CC   7D        ld   a, l    
 B8CD   D60D      sub  0Dh
 B8CF   B4        or   h       
 B8D0   C6FF      add  a, 0FFh
 B8D2   ED62      sbc  hl, hl  
 B8D4   23        inc  hl      
 B8D5   7C        ld   a, h    
 B8D6   B5        or   l       
 B8D7   CAF0B8    jp   z, Label240
 B8DA   210100    ld   hl, 0001h
 B8DD   22D786    ld   (penCol), hl 
 B8E0   210000    ld   hl, 0000h
 B8E3   7D        ld   a, l    
 B8E4   32D886    ld   (penRow), a  
 B8E7   2179E8    ld   hl, Str95
 B8EA   EF6145    bcall(_VPutS)     
 B8ED   C368B9    jp   Label239

Label240:
 B8F0   2A438A    ld   hl, (08A43h) 
 B8F3   2600      ld   h, 00h
 B8F5   7D        ld   a, l    
 B8F6   D60E      sub  0Eh
 B8F8   B4        or   h       
 B8F9   C6FF      add  a, 0FFh
 B8FB   ED62      sbc  hl, hl  
 B8FD   23        inc  hl      
 B8FE   7C        ld   a, h    
 B8FF   B5        or   l       
 B900   CA19B9    jp   z, Label241
 B903   210100    ld   hl, 0001h
 B906   22D786    ld   (penCol), hl 
 B909   210000    ld   hl, 0000h
 B90C   7D        ld   a, l    
 B90D   32D886    ld   (penRow), a  
 B910   218FE8    ld   hl, Str96
 B913   EF6145    bcall(_VPutS)     
 B916   C368B9    jp   Label239

Label241:
 B919   2A438A    ld   hl, (08A43h) 
 B91C   2600      ld   h, 00h
 B91E   7D        ld   a, l    
 B91F   D60F      sub  0Fh
 B921   B4        or   h       
 B922   C6FF      add  a, 0FFh
 B924   ED62      sbc  hl, hl  
 B926   23        inc  hl      
 B927   7C        ld   a, h    
 B928   B5        or   l       
 B929   CA42B9    jp   z, Label242
 B92C   210100    ld   hl, 0001h
 B92F   22D786    ld   (penCol), hl 
 B932   210000    ld   hl, 0000h
 B935   7D        ld   a, l    
 B936   32D886    ld   (penRow), a  
 B939   21A9E8    ld   hl, Str97
 B93C   EF6145    bcall(_VPutS)     
 B93F   C368B9    jp   Label239

Label242:
 B942   2A438A    ld   hl, (08A43h) 
 B945   2600      ld   h, 00h
 B947   7D        ld   a, l    
 B948   D610      sub  10h
 B94A   B4        or   h       
 B94B   C6FF      add  a, 0FFh
 B94D   ED62      sbc  hl, hl  
 B94F   23        inc  hl      
 B950   7C        ld   a, h    
 B951   B5        or   l       
 B952   CA68B9    jp   z, Label239
 B955   210100    ld   hl, 0001h
 B958   22D786    ld   (penCol), hl 
 B95B   210000    ld   hl, 0000h
 B95E   7D        ld   a, l    
 B95F   32D886    ld   (penRow), a  
 B962   21BFE8    ld   hl, Str98
 B965   EF6145    bcall(_VPutS)     

Label239:
 B968   C9        ret          

Label122:
 B969   2ABA89    ld   hl, (089BAh) 
 B96C   11E000    ld   de, 00E0h
 B96F   19        add  hl, de  
 B970   22C089    ld   (089C0h), hl 
 B973   117000    ld   de, 0070h
 B976   19        add  hl, de  
 B977   22C289    ld   (089C2h), hl 
 B97A   2A3B8A    ld   hl, (timer1max) 
 B97D   2600      ld   h, 00h
 B97F   11FCFF    ld   de, 0FFFCh
 B982   19        add  hl, de  
 B983   ED62      sbc  hl, hl  
 B985   23        inc  hl      
 B986   7C        ld   a, h    
 B987   B5        or   l       
 B988   CA9BB9    jp   z, Label243
 B98B   CDACDE    call Label15
 B98E   111400    ld   de, 0014h
 B991   CD6ADE    call Label16
 B994   23        inc  hl      
 B995   22EA89    ld   (089EAh), hl 
 B998   C3B2B9    jp   Label244

Label243:
 B99B   CDACDE    call Label15
 B99E   E5        push hl      
 B99F   2A3B8A    ld   hl, (timer1max) 
 B9A2   2600      ld   h, 00h
 B9A4   54        ld   d, h    
 B9A5   5D        ld   e, l    
 B9A6   CD5EE0    call Label210
 B9A9   D1        pop  de      
 B9AA   EB        ex   de, hl  
 B9AB   CD6ADE    call Label16
 B9AE   23        inc  hl      
 B9AF   22EA89    ld   (089EAh), hl 

Label244:
 B9B2   2AEA89    ld   hl, (089EAh) 
 B9B5   111400    ld   de, 0014h
 B9B8   CD6ADE    call Label16
 B9BB   7D        ld   a, l    
 B9BC   B4        or   h       
 B9BD   C6FF      add  a, 0FFh
 B9BF   ED62      sbc  hl, hl  
 B9C1   23        inc  hl      
 B9C2   E5        push hl      
 B9C3   CDACDE    call Label15
 B9C6   110500    ld   de, 0005h
 B9C9   CD6ADE    call Label16
 B9CC   23        inc  hl      
 B9CD   11FCFF    ld   de, 0FFFCh
 B9D0   19        add  hl, de  
 B9D1   ED62      sbc  hl, hl  
 B9D3   23        inc  hl      
 B9D4   D1        pop  de      
 B9D5   7D        ld   a, l    
 B9D6   A3        and  e       
 B9D7   6F        ld   l, a    
 B9D8   CA05BA    jp   z, Label245
 B9DB   210200    ld   hl, 0002h
 B9DE   E5        push hl      
 B9DF   2ABA89    ld   hl, (089BAh) 
 B9E2   11EC86    ld   de, saveSScreen
 B9E5   19        add  hl, de  
 B9E6   D1        pop  de      
 B9E7   73        ld   (hl), e 
 B9E8   210500    ld   hl, 0005h
 B9EB   E5        push hl      
 B9EC   2AC089    ld   hl, (089C0h) 
 B9EF   11EC86    ld   de, saveSScreen
 B9F2   19        add  hl, de  
 B9F3   D1        pop  de      
 B9F4   73        ld   (hl), e 
 B9F5   210000    ld   hl, 0000h
 B9F8   E5        push hl      
 B9F9   2AC289    ld   hl, (089C2h) 
 B9FC   11EC86    ld   de, saveSScreen
 B9FF   19        add  hl, de  
 BA00   D1        pop  de      
 BA01   73        ld   (hl), e 
 BA02   C3D0BD    jp   Label246

Label245:
 BA05   2AEA89    ld   hl, (089EAh) 
 BA08   118A02    ld   de, 0028Ah
 BA0B   CD6ADE    call Label16
 BA0E   7D        ld   a, l    
 BA0F   B4        or   h       
 BA10   C6FF      add  a, 0FFh
 BA12   ED62      sbc  hl, hl  
 BA14   23        inc  hl      
 BA15   E5        push hl      
 BA16   2AEA89    ld   hl, (089EAh) 
 BA19   111900    ld   de, 0019h
 BA1C   CD6ADE    call Label16
 BA1F   7D        ld   a, l    
 BA20   B4        or   h       
 BA21   C6FF      add  a, 0FFh
 BA23   ED62      sbc  hl, hl  
 BA25   23        inc  hl      
 BA26   E5        push hl      
 BA27   2A3B8A    ld   hl, (timer1max) 
 BA2A   2600      ld   h, 00h
 BA2C   AF        xor  a       
 BA2D   11D7FF    ld   de, 0FFD7h
 BA30   19        add  hl, de  
 BA31   67        ld   h, a    
 BA32   17        rla          
 BA33   6F        ld   l, a    
 BA34   D1        pop  de      
 BA35   7D        ld   a, l    
 BA36   A3        and  e       
 BA37   D1        pop  de      
 BA38   B3        or   e       
 BA39   6F        ld   l, a    
 BA3A   B4        or   h       
 BA3B   CA86BA    jp   z, Label247
 BA3E   216B00    ld   hl, 006Bh
 BA41   E5        push hl      
 BA42   2ABA89    ld   hl, (089BAh) 
 BA45   11EC86    ld   de, saveSScreen
 BA48   19        add  hl, de  
 BA49   D1        pop  de      
 BA4A   73        ld   (hl), e 
 BA4B   CDACDE    call Label15
 BA4E   114600    ld   de, 0046h
 BA51   CD6ADE    call Label16
 BA54   113C00    ld   de, 003Ch
 BA57   19        add  hl, de  
 BA58   E5        push hl      
 BA59   2AC089    ld   hl, (089C0h) 
 BA5C   11EC86    ld   de, saveSScreen
 BA5F   19        add  hl, de  
 BA60   D1        pop  de      
 BA61   73        ld   (hl), e 
 BA62   CDACDE    call Label15
 BA65   2600      ld   h, 00h
 BA67   7D        ld   a, l    
 BA68   E607      and  07h
 BA6A   6F        ld   l, a    
 BA6B   110600    ld   de, 0006h
 BA6E   19        add  hl, de  
 BA6F   E5        push hl      
 BA70   2AC289    ld   hl, (089C2h) 
 BA73   11EC86    ld   de, saveSScreen
 BA76   19        add  hl, de  
 BA77   D1        pop  de      
 BA78   73        ld   (hl), e 
 BA79   2A5B8A    ld   hl, (08A5Bh) 
 BA7C   2600      ld   h, 00h
 BA7E   23        inc  hl      
 BA7F   7D        ld   a, l    
 BA80   325B8A    ld   (08A5Bh), a  
 BA83   C3D0BD    jp   Label246

Label247:
 BA86   2AEA89    ld   hl, (089EAh) 
 BA89   112602    ld   de, 00226h
 BA8C   CD6ADE    call Label16
 BA8F   7D        ld   a, l    
 BA90   B4        or   h       
 BA91   C6FF      add  a, 0FFh
 BA93   ED62      sbc  hl, hl  
 BA95   23        inc  hl      
 BA96   E5        push hl      
 BA97   2AEA89    ld   hl, (089EAh) 
 BA9A   111900    ld   de, 0019h
 BA9D   CD6ADE    call Label16
 BAA0   7D        ld   a, l    
 BAA1   B4        or   h       
 BAA2   C6FF      add  a, 0FFh
 BAA4   ED62      sbc  hl, hl  
 BAA6   23        inc  hl      
 BAA7   E5        push hl      
 BAA8   2AED86    ld   hl, (086EDh) 
 BAAB   2600      ld   h, 00h
 BAAD   AF        xor  a       
 BAAE   11DEFF    ld   de, 0FFDEh
 BAB1   19        add  hl, de  
 BAB2   67        ld   h, a    
 BAB3   17        rla          
 BAB4   6F        ld   l, a    
 BAB5   D1        pop  de      
 BAB6   7D        ld   a, l    
 BAB7   A3        and  e       
 BAB8   D1        pop  de      
 BAB9   B3        or   e       
 BABA   6F        ld   l, a    
 BABB   B4        or   h       
 BABC   CA07BB    jp   z, Label248
 BABF   216C00    ld   hl, 006Ch
 BAC2   E5        push hl      
 BAC3   2ABA89    ld   hl, (089BAh) 
 BAC6   11EC86    ld   de, saveSScreen
 BAC9   19        add  hl, de  
 BACA   D1        pop  de      
 BACB   73        ld   (hl), e 
 BACC   CDACDE    call Label15
 BACF   113C00    ld   de, 003Ch
 BAD2   CD6ADE    call Label16
 BAD5   112800    ld   de, 0028h
 BAD8   19        add  hl, de  
 BAD9   E5        push hl      
 BADA   2AC089    ld   hl, (089C0h) 
 BADD   11EC86    ld   de, saveSScreen
 BAE0   19        add  hl, de  
 BAE1   D1        pop  de      
 BAE2   73        ld   (hl), e 
 BAE3   CDACDE    call Label15
 BAE6   110700    ld   de, 0007h
 BAE9   CD6ADE    call Label16
 BAEC   110500    ld   de, 0005h
 BAEF   19        add  hl, de  
 BAF0   E5        push hl      
 BAF1   2AC289    ld   hl, (089C2h) 
 BAF4   11EC86    ld   de, saveSScreen
 BAF7   19        add  hl, de  
 BAF8   D1        pop  de      
 BAF9   73        ld   (hl), e 
 BAFA   2A5B8A    ld   hl, (08A5Bh) 
 BAFD   2600      ld   h, 00h
 BAFF   23        inc  hl      
 BB00   7D        ld   a, l    
 BB01   325B8A    ld   (08A5Bh), a  
 BB04   C3D0BD    jp   Label246

Label248:
 BB07   2AEA89    ld   hl, (089EAh) 
 BB0A   11C201    ld   de, 001C2h
 BB0D   CD6ADE    call Label16
 BB10   7D        ld   a, l    
 BB11   B4        or   h       
 BB12   C6FF      add  a, 0FFh
 BB14   ED62      sbc  hl, hl  
 BB16   23        inc  hl      
 BB17   E5        push hl      
 BB18   2AEA89    ld   hl, (089EAh) 
 BB1B   111900    ld   de, 0019h
 BB1E   CD6ADE    call Label16
 BB21   7D        ld   a, l    
 BB22   B4        or   h       
 BB23   C6FF      add  a, 0FFh
 BB25   ED62      sbc  hl, hl  
 BB27   23        inc  hl      
 BB28   E5        push hl      
 BB29   2A3B8A    ld   hl, (timer1max) 
 BB2C   2600      ld   h, 00h
 BB2E   AF        xor  a       
 BB2F   11E4FF    ld   de, 0FFE4h
 BB32   19        add  hl, de  
 BB33   67        ld   h, a    
 BB34   17        rla          
 BB35   6F        ld   l, a    
 BB36   D1        pop  de      
 BB37   7D        ld   a, l    
 BB38   A3        and  e       
 BB39   D1        pop  de      
 BB3A   B3        or   e       
 BB3B   6F        ld   l, a    
 BB3C   B4        or   h       
 BB3D   CA88BB    jp   z, Label249
 BB40   216A00    ld   hl, 006Ah
 BB43   E5        push hl      
 BB44   2ABA89    ld   hl, (089BAh) 
 BB47   11EC86    ld   de, saveSScreen
 BB4A   19        add  hl, de  
 BB4B   D1        pop  de      
 BB4C   73        ld   (hl), e 
 BB4D   CDACDE    call Label15
 BB50   112A00    ld   de, 002Ah
 BB53   CD6ADE    call Label16
 BB56   112200    ld   de, 0022h
 BB59   19        add  hl, de  
 BB5A   E5        push hl      
 BB5B   2AC089    ld   hl, (089C0h) 
 BB5E   11EC86    ld   de, saveSScreen
 BB61   19        add  hl, de  
 BB62   D1        pop  de      
 BB63   73        ld   (hl), e 
 BB64   CDACDE    call Label15
 BB67   110900    ld   de, 0009h
 BB6A   CD6ADE    call Label16
 BB6D   110700    ld   de, 0007h
 BB70   19        add  hl, de  
 BB71   E5        push hl      
 BB72   2AC289    ld   hl, (089C2h) 
 BB75   11EC86    ld   de, saveSScreen
 BB78   19        add  hl, de  
 BB79   D1        pop  de      
 BB7A   73        ld   (hl), e 
 BB7B   2A5B8A    ld   hl, (08A5Bh) 
 BB7E   2600      ld   h, 00h
 BB80   23        inc  hl      
 BB81   7D        ld   a, l    
 BB82   325B8A    ld   (08A5Bh), a  
 BB85   C3D0BD    jp   Label246

Label249:
 BB88   2AEA89    ld   hl, (089EAh) 
 BB8B   115E01    ld   de, 0015Eh
 BB8E   CD6ADE    call Label16
 BB91   7D        ld   a, l    
 BB92   B4        or   h       
 BB93   C6FF      add  a, 0FFh
 BB95   ED62      sbc  hl, hl  
 BB97   23        inc  hl      
 BB98   E5        push hl      
 BB99   2AEA89    ld   hl, (089EAh) 
 BB9C   111900    ld   de, 0019h
 BB9F   CD6ADE    call Label16
 BBA2   7D        ld   a, l    
 BBA3   B4        or   h       
 BBA4   C6FF      add  a, 0FFh
 BBA6   ED62      sbc  hl, hl  
 BBA8   23        inc  hl      
 BBA9   E5        push hl      
 BBAA   2A3B8A    ld   hl, (timer1max) 
 BBAD   2600      ld   h, 00h
 BBAF   AF        xor  a       
 BBB0   11EBFF    ld   de, 0FFEBh
 BBB3   19        add  hl, de  
 BBB4   67        ld   h, a    
 BBB5   17        rla          
 BBB6   6F        ld   l, a    
 BBB7   D1        pop  de      
 BBB8   7D        ld   a, l    
 BBB9   A3        and  e       
 BBBA   D1        pop  de      
 BBBB   B3        or   e       
 BBBC   6F        ld   l, a    
 BBBD   B4        or   h       
 BBBE   CA09BC    jp   z, Label250
 BBC1   216900    ld   hl, 0069h
 BBC4   E5        push hl      
 BBC5   2ABA89    ld   hl, (089BAh) 
 BBC8   11EC86    ld   de, saveSScreen
 BBCB   19        add  hl, de  
 BBCC   D1        pop  de      
 BBCD   73        ld   (hl), e 
 BBCE   CDACDE    call Label15
 BBD1   112800    ld   de, 0028h
 BBD4   CD6ADE    call Label16
 BBD7   111400    ld   de, 0014h
 BBDA   19        add  hl, de  
 BBDB   E5        push hl      
 BBDC   2AC089    ld   hl, (089C0h) 
 BBDF   11EC86    ld   de, saveSScreen
 BBE2   19        add  hl, de  
 BBE3   D1        pop  de      
 BBE4   73        ld   (hl), e 
 BBE5   CDACDE    call Label15
 BBE8   110700    ld   de, 0007h
 BBEB   CD6ADE    call Label16
 BBEE   110500    ld   de, 0005h
 BBF1   19        add  hl, de  
 BBF2   E5        push hl      
 BBF3   2AC289    ld   hl, (089C2h) 
 BBF6   11EC86    ld   de, saveSScreen
 BBF9   19        add  hl, de  
 BBFA   D1        pop  de      
 BBFB   73        ld   (hl), e 
 BBFC   2A5B8A    ld   hl, (08A5Bh) 
 BBFF   2600      ld   h, 00h
 BC01   23        inc  hl      
 BC02   7D        ld   a, l    
 BC03   325B8A    ld   (08A5Bh), a  
 BC06   C3D0BD    jp   Label246

Label250:
 BC09   2AEA89    ld   hl, (089EAh) 
 BC0C   119600    ld   de, 0096h
 BC0F   CD6ADE    call Label16
 BC12   7D        ld   a, l    
 BC13   B4        or   h       
 BC14   C6FF      add  a, 0FFh
 BC16   ED62      sbc  hl, hl  
 BC18   23        inc  hl      
 BC19   7C        ld   a, h    
 BC1A   B5        or   l       
 BC1B   CA66BC    jp   z, Label251
 BC1E   216800    ld   hl, 0068h
 BC21   E5        push hl      
 BC22   2ABA89    ld   hl, (089BAh) 
 BC25   11EC86    ld   de, saveSScreen
 BC28   19        add  hl, de  
 BC29   D1        pop  de      
 BC2A   73        ld   (hl), e 
 BC2B   CDACDE    call Label15
 BC2E   111900    ld   de, 0019h
 BC31   CD6ADE    call Label16
 BC34   111100    ld   de, 0011h
 BC37   19        add  hl, de  
 BC38   E5        push hl      
 BC39   2AC089    ld   hl, (089C0h) 
 BC3C   11EC86    ld   de, saveSScreen
 BC3F   19        add  hl, de  
 BC40   D1        pop  de      
 BC41   73        ld   (hl), e 
 BC42   CDACDE    call Label15
 BC45   2600      ld   h, 00h
 BC47   7D        ld   a, l    
 BC48   E607      and  07h
 BC4A   6F        ld   l, a    
 BC4B   110600    ld   de, 0006h
 BC4E   19        add  hl, de  
 BC4F   E5        push hl      
 BC50   2AC289    ld   hl, (089C2h) 
 BC53   11EC86    ld   de, saveSScreen
 BC56   19        add  hl, de  
 BC57   D1        pop  de      
 BC58   73        ld   (hl), e 
 BC59   2A5B8A    ld   hl, (08A5Bh) 
 BC5C   2600      ld   h, 00h
 BC5E   23        inc  hl      
 BC5F   7D        ld   a, l    
 BC60   325B8A    ld   (08A5Bh), a  
 BC63   C3D0BD    jp   Label246

Label251:
 BC66   2AEA89    ld   hl, (089EAh) 
 BC69   114B00    ld   de, 004Bh
 BC6C   CD6ADE    call Label16
 BC6F   7D        ld   a, l    
 BC70   B4        or   h       
 BC71   C6FF      add  a, 0FFh
 BC73   ED62      sbc  hl, hl  
 BC75   23        inc  hl      
 BC76   7C        ld   a, h    
 BC77   B5        or   l       
 BC78   CAC3BC    jp   z, Label252
 BC7B   216700    ld   hl, 0067h
 BC7E   E5        push hl      
 BC7F   2ABA89    ld   hl, (089BAh) 
 BC82   11EC86    ld   de, saveSScreen
 BC85   19        add  hl, de  
 BC86   D1        pop  de      
 BC87   73        ld   (hl), e 
 BC88   CDACDE    call Label15
 BC8B   111700    ld   de, 0017h
 BC8E   CD6ADE    call Label16
 BC91   110F00    ld   de, 000Fh
 BC94   19        add  hl, de  
 BC95   E5        push hl      
 BC96   2AC089    ld   hl, (089C0h) 
 BC99   11EC86    ld   de, saveSScreen
 BC9C   19        add  hl, de  
 BC9D   D1        pop  de      
 BC9E   73        ld   (hl), e 
 BC9F   CDACDE    call Label15
 BCA2   110600    ld   de, 0006h
 BCA5   CD6ADE    call Label16
 BCA8   110400    ld   de, 0004h
 BCAB   19        add  hl, de  
 BCAC   E5        push hl      
 BCAD   2AC289    ld   hl, (089C2h) 
 BCB0   11EC86    ld   de, saveSScreen
 BCB3   19        add  hl, de  
 BCB4   D1        pop  de      
 BCB5   73        ld   (hl), e 
 BCB6   2A5B8A    ld   hl, (08A5Bh) 
 BCB9   2600      ld   h, 00h
 BCBB   23        inc  hl      
 BCBC   7D        ld   a, l    
 BCBD   325B8A    ld   (08A5Bh), a  
 BCC0   C3D0BD    jp   Label246

Label252:
 BCC3   2AEA89    ld   hl, (089EAh) 
 BCC6   113200    ld   de, 0032h
 BCC9   CD6ADE    call Label16
 BCCC   7D        ld   a, l    
 BCCD   B4        or   h       
 BCCE   C6FF      add  a, 0FFh
 BCD0   ED62      sbc  hl, hl  
 BCD2   23        inc  hl      
 BCD3   7C        ld   a, h    
 BCD4   B5        or   l       
 BCD5   CA1FBD    jp   z, Label253
 BCD8   216600    ld   hl, 0066h
 BCDB   E5        push hl      
 BCDC   2ABA89    ld   hl, (089BAh) 
 BCDF   11EC86    ld   de, saveSScreen
 BCE2   19        add  hl, de  
 BCE3   D1        pop  de      
 BCE4   73        ld   (hl), e 
 BCE5   CDACDE    call Label15
 BCE8   2600      ld   h, 00h
 BCEA   7D        ld   a, l    
 BCEB   E607      and  07h
 BCED   6F        ld   l, a    
 BCEE   110600    ld   de, 0006h
 BCF1   19        add  hl, de  
 BCF2   E5        push hl      
 BCF3   2AC089    ld   hl, (089C0h) 
 BCF6   11EC86    ld   de, saveSScreen
 BCF9   19        add  hl, de  
 BCFA   D1        pop  de      
 BCFB   73        ld   (hl), e 
 BCFC   CDACDE    call Label15
 BCFF   110500    ld   de, 0005h
 BD02   CD6ADE    call Label16
 BD05   23        inc  hl      
 BD06   23        inc  hl      
 BD07   23        inc  hl      
 BD08   E5        push hl      
 BD09   2AC289    ld   hl, (089C2h) 
 BD0C   11EC86    ld   de, saveSScreen
 BD0F   19        add  hl, de  
 BD10   D1        pop  de      
 BD11   73        ld   (hl), e 
 BD12   2A5B8A    ld   hl, (08A5Bh) 
 BD15   2600      ld   h, 00h
 BD17   23        inc  hl      
 BD18   7D        ld   a, l    
 BD19   325B8A    ld   (08A5Bh), a  
 BD1C   C3D0BD    jp   Label246

Label253:
 BD1F   2AEA89    ld   hl, (089EAh) 
 BD22   111900    ld   de, 0019h
 BD25   CD6ADE    call Label16
 BD28   7D        ld   a, l    
 BD29   B4        or   h       
 BD2A   C6FF      add  a, 0FFh
 BD2C   ED62      sbc  hl, hl  
 BD2E   23        inc  hl      
 BD2F   E5        push hl      
 BD30   2A3B8A    ld   hl, (timer1max) 
 BD33   2600      ld   h, 00h
 BD35   AF        xor  a       
 BD36   11FCFF    ld   de, 0FFFCh
 BD39   19        add  hl, de  
 BD3A   67        ld   h, a    
 BD3B   17        rla          
 BD3C   6F        ld   l, a    
 BD3D   D1        pop  de      
 BD3E   7D        ld   a, l    
 BD3F   A3        and  e       
 BD40   6F        ld   l, a    
 BD41   B4        or   h       
 BD42   CA8ABD    jp   z, Label254
 BD45   216500    ld   hl, 0065h
 BD48   E5        push hl      
 BD49   2ABA89    ld   hl, (089BAh) 
 BD4C   11EC86    ld   de, saveSScreen
 BD4F   19        add  hl, de  
 BD50   D1        pop  de      
 BD51   73        ld   (hl), e 
 BD52   CDACDE    call Label15
 BD55   110600    ld   de, 0006h
 BD58   CD6ADE    call Label16
 BD5B   110400    ld   de, 0004h
 BD5E   19        add  hl, de  
 BD5F   E5        push hl      
 BD60   2AC089    ld   hl, (089C0h) 
 BD63   11EC86    ld   de, saveSScreen
 BD66   19        add  hl, de  
 BD67   D1        pop  de      
 BD68   73        ld   (hl), e 
 BD69   CDACDE    call Label15
 BD6C   110300    ld   de, 0003h
 BD6F   CD6ADE    call Label16
 BD72   23        inc  hl      
 BD73   E5        push hl      
 BD74   2AC289    ld   hl, (089C2h) 
 BD77   11EC86    ld   de, saveSScreen
 BD7A   19        add  hl, de  
 BD7B   D1        pop  de      
 BD7C   73        ld   (hl), e 
 BD7D   2A5B8A    ld   hl, (08A5Bh) 
 BD80   2600      ld   h, 00h
 BD82   23        inc  hl      
 BD83   7D        ld   a, l    
 BD84   325B8A    ld   (08A5Bh), a  
 BD87   C3D0BD    jp   Label246

Label254:
 BD8A   2AEA89    ld   hl, (089EAh) 
 BD8D   110F00    ld   de, 000Fh
 BD90   CD6ADE    call Label16
 BD93   7D        ld   a, l    
 BD94   B4        or   h       
 BD95   C6FF      add  a, 0FFh
 BD97   ED62      sbc  hl, hl  
 BD99   23        inc  hl      
 BD9A   7C        ld   a, h    
 BD9B   B5        or   l       
 BD9C   CAD0BD    jp   z, Label246
 BD9F   216400    ld   hl, 0064h
 BDA2   E5        push hl      
 BDA3   2ABA89    ld   hl, (089BAh) 
 BDA6   11EC86    ld   de, saveSScreen
 BDA9   19        add  hl, de  
 BDAA   D1        pop  de      
 BDAB   73        ld   (hl), e 
 BDAC   210100    ld   hl, 0001h
 BDAF   E5        push hl      
 BDB0   2AC089    ld   hl, (089C0h) 
 BDB3   11EC86    ld   de, saveSScreen
 BDB6   19        add  hl, de  
 BDB7   D1        pop  de      
 BDB8   73        ld   (hl), e 
 BDB9   210100    ld   hl, 0001h
 BDBC   E5        push hl      
 BDBD   2AC289    ld   hl, (089C2h) 
 BDC0   11EC86    ld   de, saveSScreen
 BDC3   19        add  hl, de  
 BDC4   D1        pop  de      
 BDC5   73        ld   (hl), e 
 BDC6   2A5B8A    ld   hl, (08A5Bh) 
 BDC9   2600      ld   h, 00h
 BDCB   23        inc  hl      
 BDCC   7D        ld   a, l    
 BDCD   325B8A    ld   (08A5Bh), a  

Label246:
 BDD0   C9        ret          

Label179:
 BDD1   2ABA89    ld   hl, (089BAh) 
 BDD4   11E000    ld   de, 00E0h
 BDD7   19        add  hl, de  
 BDD8   22EA89    ld   (089EAh), hl 
 BDDB   2ABA89    ld   hl, (089BAh) 
 BDDE   11EC86    ld   de, saveSScreen
 BDE1   19        add  hl, de  
 BDE2   6E        ld   l, (hl) 
 BDE3   2600      ld   h, 00h
 BDE5   7C        ld   a, h    
 BDE6   2D        dec  l       
 BDE7   2D        dec  l       
 BDE8   B5        or   l       
 BDE9   2803      jr   z, Label255
 BDEB   210100    ld   hl, 0001h

Label255:
 BDEE   7C        ld   a, h    
 BDEF   B5        or   l       
 BDF0   CAFDBD    jp   z, Label256
 BDF3   210200    ld   hl, 0002h
 BDF6   7D        ld   a, l    
 BDF7   32438A    ld   (08A43h), a  
 BDFA   C304BE    jp   Label257

Label256:
 BDFD   210C00    ld   hl, 000Ch
 BE00   7D        ld   a, l    
 BE01   32438A    ld   (08A43h), a  

Label257:
 BE04   2A478A    ld   hl, (08A47h) 
 BE07   2600      ld   h, 00h
 BE09   7D        ld   a, l    
 BE0A   B4        or   h       
 BE0B   2803      jr   z, Label258
 BE0D   210100    ld   hl, 0001h

Label258:
 BE10   7C        ld   a, h    
 BE11   B5        or   l       
 BE12   CA2DBE    jp   z, Label259
 BE15   2A468A    ld   hl, (08A46h) 
 BE18   2600      ld   h, 00h
 BE1A   54        ld   d, h    
 BE1B   5D        ld   e, l    
 BE1C   29        add  hl, hl  
 BE1D   19        add  hl, de  
 BE1E   22C489    ld   (089C4h), hl 
 BE21   2A468A    ld   hl, (08A46h) 
 BE24   2600      ld   h, 00h
 BE26   29        add  hl, hl  
 BE27   22CC89    ld   (089CCh), hl 
 BE2A   C349BE    jp   Label260

Label259:
 BE2D   2A468A    ld   hl, (08A46h) 
 BE30   2600      ld   h, 00h
 BE32   119901    ld   de, 00199h
 BE35   CD38E0    call Label261
 BE38   22C489    ld   (089C4h), hl 
 BE3B   2A468A    ld   hl, (08A46h) 
 BE3E   2600      ld   h, 00h
 BE40   119900    ld   de, 0099h
 BE43   CD38E0    call Label261
 BE46   22CC89    ld   (089CCh), hl 

Label260:
 BE49   2ACC89    ld   hl, (089CCh) 
 BE4C   7D        ld   a, l    
 BE4D   B4        or   h       
 BE4E   C6FF      add  a, 0FFh
 BE50   ED62      sbc  hl, hl  
 BE52   23        inc  hl      
 BE53   7C        ld   a, h    
 BE54   B5        or   l       
 BE55   CA5EBE    jp   z, Label262
 BE58   210100    ld   hl, 0001h
 BE5B   22CC89    ld   (089CCh), hl 

Label262:
 BE5E   2AEA89    ld   hl, (089EAh) 
 BE61   11EC86    ld   de, saveSScreen
 BE64   19        add  hl, de  
 BE65   6E        ld   l, (hl) 
 BE66   2600      ld   h, 00h
 BE68   22E889    ld   (089E8h), hl 
 BE6B   2AEA89    ld   hl, (089EAh) 
 BE6E   11EC86    ld   de, saveSScreen
 BE71   19        add  hl, de  
 BE72   6E        ld   l, (hl) 
 BE73   2600      ld   h, 00h
 BE75   E5        push hl      
 BE76   CDACDE    call Label15
 BE79   ED5BC489  ld   de, (089C4h) 
 BE7D   CD6ADE    call Label16
 BE80   ED5BCC89  ld   de, (089CCh) 
 BE84   19        add  hl, de  
 BE85   D1        pop  de      
 BE86   EB        ex   de, hl  
 BE87   B7        or   a       
 BE88   ED52      sbc  hl, de  
 BE8A   E5        push hl      
 BE8B   2AEA89    ld   hl, (089EAh) 
 BE8E   11EC86    ld   de, saveSScreen
 BE91   19        add  hl, de  
 BE92   D1        pop  de      
 BE93   73        ld   (hl), e 
 BE94   2AEA89    ld   hl, (089EAh) 
 BE97   11EC86    ld   de, saveSScreen
 BE9A   19        add  hl, de  
 BE9B   6E        ld   l, (hl) 
 BE9C   2600      ld   h, 00h
 BE9E   ED5BE889  ld   de, (089E8h) 
 BEA2   37        scf          
 BEA3   ED52      sbc  hl, de  
 BEA5   ED62      sbc  hl, hl  
 BEA7   23        inc  hl      
 BEA8   7C        ld   a, h    
 BEA9   B5        or   l       
 BEAA   CABABE    jp   z, Label263
 BEAD   210000    ld   hl, 0000h
 BEB0   E5        push hl      
 BEB1   2AEA89    ld   hl, (089EAh) 
 BEB4   11EC86    ld   de, saveSScreen
 BEB7   19        add  hl, de  
 BEB8   D1        pop  de      
 BEB9   73        ld   (hl), e 

Label263:
 BEBA   2AEA89    ld   hl, (089EAh) 
 BEBD   11EC86    ld   de, saveSScreen
 BEC0   19        add  hl, de  
 BEC1   6E        ld   l, (hl) 
 BEC2   AF        xor  a       
 BEC3   BD        cp   l       
 BEC4   ED62      sbc  hl, hl  
 BEC6   23        inc  hl      
 BEC7   E5        push hl      
 BEC8   2ABA89    ld   hl, (089BAh) 
 BECB   11EC86    ld   de, saveSScreen
 BECE   19        add  hl, de  
 BECF   6E        ld   l, (hl) 
 BED0   2600      ld   h, 00h
 BED2   2D        dec  l       
 BED3   7D        ld   a, l    
 BED4   3D        dec  a       
 BED5   B4        or   h       
 BED6   2802      jr   z, Label264
 BED8   ED62      sbc  hl, hl  

Label264:
 BEDA   D1        pop  de      
 BEDB   7D        ld   a, l    
 BEDC   A3        and  e       
 BEDD   6F        ld   l, a    
 BEDE   B4        or   h       
 BEDF   CAEFBE    jp   z, Label265
 BEE2   CD68C7    call Label266
 BEE5   210B00    ld   hl, 000Bh
 BEE8   7D        ld   a, l    
 BEE9   32438A    ld   (08A43h), a  
 BEEC   C3AABF    jp   Label267

Label265:
 BEEF   2AEA89    ld   hl, (089EAh) 
 BEF2   11EC86    ld   de, saveSScreen
 BEF5   19        add  hl, de  
 BEF6   6E        ld   l, (hl) 
 BEF7   AF        xor  a       
 BEF8   BD        cp   l       
 BEF9   ED62      sbc  hl, hl  
 BEFB   23        inc  hl      
 BEFC   E5        push hl      
 BEFD   2ABA89    ld   hl, (089BAh) 
 BF00   11EC86    ld   de, saveSScreen
 BF03   19        add  hl, de  
 BF04   6E        ld   l, (hl) 
 BF05   2600      ld   h, 00h
 BF07   7C        ld   a, h    
 BF08   2D        dec  l       
 BF09   2D        dec  l       
 BF0A   B5        or   l       
 BF0B   2803      jr   z, Label268
 BF0D   210100    ld   hl, 0001h

Label268:
 BF10   D1        pop  de      
 BF11   7D        ld   a, l    
 BF12   A3        and  e       
 BF13   6F        ld   l, a    
 BF14   B4        or   h       
 BF15   CAAABF    jp   z, Label267
 BF18   2ABA89    ld   hl, (089BAh) 
 BF1B   11EC86    ld   de, saveSScreen
 BF1E   19        add  hl, de  
 BF1F   6E        ld   l, (hl) 
 BF20   2600      ld   h, 00h
 BF22   7D        ld   a, l    
 BF23   D670      sub  70h
 BF25   B4        or   h       
 BF26   C6FF      add  a, 0FFh
 BF28   ED62      sbc  hl, hl  
 BF2A   23        inc  hl      
 BF2B   7C        ld   a, h    
 BF2C   B5        or   l       
 BF2D   CA3ABF    jp   z, Label269
 BF30   210100    ld   hl, 0001h
 BF33   7D        ld   a, l    
 BF34   32588A    ld   (08A58h), a  
 BF37   C35CBF    jp   Label270

Label269:
 BF3A   2ABA89    ld   hl, (089BAh) 
 BF3D   11EC86    ld   de, saveSScreen
 BF40   19        add  hl, de  
 BF41   6E        ld   l, (hl) 
 BF42   2600      ld   h, 00h
 BF44   7D        ld   a, l    
 BF45   D66F      sub  6Fh
 BF47   B4        or   h       
 BF48   C6FF      add  a, 0FFh
 BF4A   ED62      sbc  hl, hl  
 BF4C   23        inc  hl      
 BF4D   7C        ld   a, h    
 BF4E   B5        or   l       
 BF4F   CA5CBF    jp   z, Label270
 BF52   2A598A    ld   hl, (08A59h) 
 BF55   2600      ld   h, 00h
 BF57   2B        dec  hl      
 BF58   7D        ld   a, l    
 BF59   32598A    ld   (08A59h), a  

Label270:
 BF5C   2ABA89    ld   hl, (089BAh) 
 BF5F   115001    ld   de, 00150h
 BF62   19        add  hl, de  
 BF63   22E889    ld   (089E8h), hl 
 BF66   2A3C8A    ld   hl, (timer2) 
 BF69   2600      ld   h, 00h
 BF6B   E5        push hl      
 BF6C   2AE889    ld   hl, (089E8h) 
 BF6F   11EC86    ld   de, saveSScreen
 BF72   19        add  hl, de  
 BF73   6E        ld   l, (hl) 
 BF74   2600      ld   h, 00h
 BF76   D1        pop  de      
 BF77   19        add  hl, de  
 BF78   7D        ld   a, l    
 BF79   323C8A    ld   (timer2), a  
 BF7C   210D00    ld   hl, 000Dh
 BF7F   7D        ld   a, l    
 BF80   32438A    ld   (08A43h), a  
 BF83   210000    ld   hl, 0000h
 BF86   E5        push hl      
 BF87   2AEA89    ld   hl, (089EAh) 
 BF8A   11EC86    ld   de, saveSScreen
 BF8D   19        add  hl, de  
 BF8E   D1        pop  de      
 BF8F   73        ld   (hl), e 
 BF90   210000    ld   hl, 0000h
 BF93   E5        push hl      
 BF94   2ABA89    ld   hl, (089BAh) 
 BF97   11EC86    ld   de, saveSScreen
 BF9A   19        add  hl, de  
 BF9B   D1        pop  de      
 BF9C   73        ld   (hl), e 
 BF9D   210000    ld   hl, 0000h
 BFA0   E5        push hl      
 BFA1   2AE889    ld   hl, (089E8h) 
 BFA4   11EC86    ld   de, saveSScreen
 BFA7   19        add  hl, de  
 BFA8   D1        pop  de      
 BFA9   73        ld   (hl), e 

Label267:
 BFAA   CD57C6    call Label271
 BFAD   C9        ret          

Label40:
 BFAE   2A4B8A    ld   hl, (08A4Bh) 
 BFB1   2600      ld   h, 00h
 BFB3   7C        ld   a, h    
 BFB4   2D        dec  l       
 BFB5   B5        or   l       
 BFB6   2803      jr   z, Label272
 BFB8   210100    ld   hl, 0001h

Label272:
 BFBB   E5        push hl      
 BFBC   2A518A    ld   hl, (08A51h) 
 BFBF   2600      ld   h, 00h
 BFC1   7C        ld   a, h    
 BFC2   2D        dec  l       
 BFC3   B5        or   l       
 BFC4   2803      jr   z, Label273
 BFC6   210100    ld   hl, 0001h

Label273:
 BFC9   D1        pop  de      
 BFCA   7D        ld   a, l    
 BFCB   A3        and  e       
 BFCC   6F        ld   l, a    
 BFCD   B4        or   h       
 BFCE   CA5EC3    jp   z, Label274
 BFD1   217000    ld   hl, 0070h
 BFD4   1804      jr   Label275

Label277:
 BFD6   2AEA89    ld   hl, (089EAh) 
 BFD9   23        inc  hl      

Label275:
 BFDA   22EA89    ld   (089EAh), hl 
 BFDD   EB        ex   de, hl  
 BFDE   21DF00    ld   hl, 00DFh
 BFE1   B7        or   a       
 BFE2   ED52      sbc  hl, de  
 BFE4   DAF6BF    jp   c, Label276
 BFE7   210000    ld   hl, 0000h
 BFEA   E5        push hl      
 BFEB   2AEA89    ld   hl, (089EAh) 
 BFEE   11EC86    ld   de, saveSScreen
 BFF1   19        add  hl, de  
 BFF2   D1        pop  de      
 BFF3   73        ld   (hl), e 
 BFF4   18E0      jr   Label277

Label276:
 BFF6   210000    ld   hl, 0000h
 BFF9   1804      jr   Label278

Label307:
 BFFB   2AB689    ld   hl, (089B6h) 
 BFFE   23        inc  hl      

Label278:
 BFFF   22B689    ld   (089B6h), hl 
 C002   EB        ex   de, hl  
 C003   210700    ld   hl, 0007h
 C006   B7        or   a       
 C007   ED52      sbc  hl, de  
 C009   DA5EC3    jp   c, Label274
 C00C   2AB689    ld   hl, (089B6h) 
 C00F   7D        ld   a, l    
 C010   D603      sub  03h
 C012   B4        or   h       
 C013   C6FF      add  a, 0FFh
 C015   ED62      sbc  hl, hl  
 C017   23        inc  hl      
 C018   7C        ld   a, h    
 C019   B5        or   l       
 C01A   CA20C0    jp   z, Label279
 C01D   CD94DF    call Label85

Label279:
 C020   210000    ld   hl, 0000h
 C023   1804      jr   Label280

Label306:
 C025   2AB889    ld   hl, (089B8h) 
 C028   23        inc  hl      

Label280:
 C029   22B889    ld   (089B8h), hl 
 C02C   EB        ex   de, hl  
 C02D   210D00    ld   hl, 000Dh
 C030   B7        or   a       
 C031   ED52      sbc  hl, de  
 C033   DA5BC3    jp   c, Label281
 C036   CDF7B4    call Label91
 C039   210000    ld   hl, 0000h
 C03C   7D        ld   a, l    
 C03D   32488A    ld   (08A48h), a  
 C040   2ABA89    ld   hl, (089BAh) 
 C043   117000    ld   de, 0070h
 C046   19        add  hl, de  
 C047   22EA89    ld   (089EAh), hl 
 C04A   2ABA89    ld   hl, (089BAh) 
 C04D   11EC86    ld   de, saveSScreen
 C050   19        add  hl, de  
 C051   6E        ld   l, (hl) 
 C052   2600      ld   h, 00h
 C054   AF        xor  a       
 C055   119CFF    ld   de, 0FF9Ch
 C058   19        add  hl, de  
 C059   67        ld   h, a    
 C05A   17        rla          
 C05B   6F        ld   l, a    
 C05C   E5        push hl      
 C05D   2AEA89    ld   hl, (089EAh) 
 C060   11EC86    ld   de, saveSScreen
 C063   19        add  hl, de  
 C064   6E        ld   l, (hl) 
 C065   AF        xor  a       
 C066   BD        cp   l       
 C067   ED62      sbc  hl, hl  
 C069   23        inc  hl      
 C06A   D1        pop  de      
 C06B   7D        ld   a, l    
 C06C   A3        and  e       
 C06D   6F        ld   l, a    
 C06E   CA58C3    jp   z, Label282
 C071   2ABA89    ld   hl, (089BAh) 
 C074   11EC86    ld   de, saveSScreen
 C077   19        add  hl, de  
 C078   6E        ld   l, (hl) 
 C079   2600      ld   h, 00h
 C07B   7D        ld   a, l    
 C07C   32608A    ld   (08A60h), a  
 C07F   2ABA89    ld   hl, (089BAh) 
 C082   11EC86    ld   de, saveSScreen
 C085   19        add  hl, de  
 C086   6E        ld   l, (hl) 
 C087   2600      ld   h, 00h
 C089   7D        ld   a, l    
 C08A   D670      sub  70h
 C08C   B4        or   h       
 C08D   C6FF      add  a, 0FFh
 C08F   ED62      sbc  hl, hl  
 C091   23        inc  hl      
 C092   E5        push hl      
 C093   2AEA89    ld   hl, (089EAh) 
 C096   11EC86    ld   de, saveSScreen
 C099   19        add  hl, de  
 C09A   6E        ld   l, (hl) 
 C09B   AF        xor  a       
 C09C   BD        cp   l       
 C09D   ED62      sbc  hl, hl  
 C09F   23        inc  hl      
 C0A0   D1        pop  de      
 C0A1   7D        ld   a, l    
 C0A2   A3        and  e       
 C0A3   6F        ld   l, a    
 C0A4   CAD5C0    jp   z, Label283
 C0A7   210100    ld   hl, 0001h
 C0AA   E5        push hl      
 C0AB   2AEA89    ld   hl, (089EAh) 
 C0AE   11EC86    ld   de, saveSScreen
 C0B1   19        add  hl, de  
 C0B2   D1        pop  de      
 C0B3   73        ld   (hl), e 
 C0B4   CDACDE    call Label15
 C0B7   110700    ld   de, 0007h
 C0BA   CD6ADE    call Label16
 C0BD   23        inc  hl      
 C0BE   22D289    ld   (089D2h), hl 
 C0C1   7D        ld   a, l    
 C0C2   D607      sub  07h
 C0C4   B4        or   h       
 C0C5   C6FF      add  a, 0FFh
 C0C7   ED62      sbc  hl, hl  
 C0C9   23        inc  hl      
 C0CA   7C        ld   a, h    
 C0CB   B5        or   l       
 C0CC   CAD2C0    jp   z, Label284
 C0CF   CDD1D5    call Label160

Label284:
 C0D2   C354C1    jp   Label285

Label283:
 C0D5   2ABA89    ld   hl, (089BAh) 
 C0D8   11EC86    ld   de, saveSScreen
 C0DB   19        add  hl, de  
 C0DC   6E        ld   l, (hl) 
 C0DD   2600      ld   h, 00h
 C0DF   7D        ld   a, l    
 C0E0   D668      sub  68h
 C0E2   B4        or   h       
 C0E3   C6FF      add  a, 0FFh
 C0E5   ED62      sbc  hl, hl  
 C0E7   23        inc  hl      
 C0E8   7C        ld   a, h    
 C0E9   B5        or   l       
 C0EA   CA54C1    jp   z, Label285
 C0ED   CDACDE    call Label15
 C0F0   110300    ld   de, 0003h
 C0F3   CD6ADE    call Label16
 C0F6   23        inc  hl      
 C0F7   7D        ld   a, l    
 C0F8   3D        dec  a       
 C0F9   B4        or   h       
 C0FA   2802      jr   z, Label286
 C0FC   ED62      sbc  hl, hl  

Label286:
 C0FE   7C        ld   a, h    
 C0FF   B5        or   l       
 C100   CA54C1    jp   z, Label285
 C103   210000    ld   hl, 0000h
 C106   E5        push hl      
 C107   2ABA89    ld   hl, (089BAh) 
 C10A   11EC86    ld   de, saveSScreen
 C10D   19        add  hl, de  
 C10E   D1        pop  de      
 C10F   73        ld   (hl), e 
 C110   210000    ld   hl, 0000h
 C113   E5        push hl      
 C114   2ABA89    ld   hl, (089BAh) 
 C117   117000    ld   de, 0070h
 C11A   19        add  hl, de  
 C11B   11EC86    ld   de, saveSScreen
 C11E   19        add  hl, de  
 C11F   D1        pop  de      
 C120   73        ld   (hl), e 
 C121   210000    ld   hl, 0000h
 C124   E5        push hl      
 C125   2ABA89    ld   hl, (089BAh) 
 C128   11E000    ld   de, 00E0h
 C12B   19        add  hl, de  
 C12C   11EC86    ld   de, saveSScreen
 C12F   19        add  hl, de  
 C130   D1        pop  de      
 C131   73        ld   (hl), e 
 C132   210000    ld   hl, 0000h
 C135   E5        push hl      
 C136   2ABA89    ld   hl, (089BAh) 
 C139   115001    ld   de, 00150h
 C13C   19        add  hl, de  
 C13D   11EC86    ld   de, saveSScreen
 C140   19        add  hl, de  
 C141   D1        pop  de      
 C142   73        ld   (hl), e 
 C143   210100    ld   hl, 0001h
 C146   7D        ld   a, l    
 C147   325F8A    ld   (08A5Fh), a  
 C14A   CDD1D5    call Label160
 C14D   210000    ld   hl, 0000h
 C150   7D        ld   a, l    
 C151   325F8A    ld   (08A5Fh), a  

Label285:
 C154   2ABA89    ld   hl, (089BAh) 
 C157   11EC86    ld   de, saveSScreen
 C15A   19        add  hl, de  
 C15B   6E        ld   l, (hl) 
 C15C   2600      ld   h, 00h
 C15E   7D        ld   a, l    
 C15F   32448A    ld   (08A44h), a  
 C162   2ABA89    ld   hl, (089BAh) 
 C165   11E000    ld   de, 00E0h
 C168   19        add  hl, de  
 C169   22EA89    ld   (089EAh), hl 
 C16C   11EC86    ld   de, saveSScreen
 C16F   19        add  hl, de  
 C170   6E        ld   l, (hl) 
 C171   2600      ld   h, 00h
 C173   7D        ld   a, l    
 C174   32458A    ld   (08A45h), a  
 C177   2ABA89    ld   hl, (089BAh) 
 C17A   115001    ld   de, 00150h
 C17D   19        add  hl, de  
 C17E   22EA89    ld   (089EAh), hl 
 C181   11EC86    ld   de, saveSScreen
 C184   19        add  hl, de  
 C185   6E        ld   l, (hl) 
 C186   2600      ld   h, 00h
 C188   7D        ld   a, l    
 C189   32498A    ld   (08A49h), a  
 C18C   2AB689    ld   hl, (089B6h) 
 C18F   3A418A    ld   a, (08A41h)  
 C192   5F        ld   e, a    
 C193   1600      ld   d, 00h
 C195   AF        xor  a       
 C196   ED52      sbc  hl, de  
 C198   67        ld   h, a    
 C199   17        rla          
 C19A   6F        ld   l, a    
 C19B   E5        push hl      
 C19C   2AB889    ld   hl, (089B8h) 
 C19F   3A428A    ld   a, (08A42h)  
 C1A2   5F        ld   e, a    
 C1A3   1600      ld   d, 00h
 C1A5   AF        xor  a       
 C1A6   ED52      sbc  hl, de  
 C1A8   67        ld   h, a    
 C1A9   17        rla          
 C1AA   6F        ld   l, a    
 C1AB   D1        pop  de      
 C1AC   7D        ld   a, l    
 C1AD   A3        and  e       
 C1AE   6F        ld   l, a    
 C1AF   E5        push hl      
 C1B0   2A488A    ld   hl, (08A48h) 
 C1B3   AF        xor  a       
 C1B4   BD        cp   l       
 C1B5   ED62      sbc  hl, hl  
 C1B7   23        inc  hl      
 C1B8   D1        pop  de      
 C1B9   7D        ld   a, l    
 C1BA   A3        and  e       
 C1BB   6F        ld   l, a    
 C1BC   CADDC1    jp   z, Label287
 C1BF   CDACDE    call Label15
 C1C2   AF        xor  a       
 C1C3   67        ld   h, a    
 C1C4   3C        inc  a       
 C1C5   A5        and  l       
 C1C6   6F        ld   l, a    
 C1C7   23        inc  hl      
 C1C8   7D        ld   a, l    
 C1C9   3D        dec  a       
 C1CA   B4        or   h       
 C1CB   2802      jr   z, Label288
 C1CD   ED62      sbc  hl, hl  

Label288:
 C1CF   7C        ld   a, h    
 C1D0   B5        or   l       
 C1D1   CADAC1    jp   z, Label289
 C1D4   CD8CC5    call Label290
 C1D7   C3DDC1    jp   Label287

Label289:
 C1DA   CD26C5    call Label291

Label287:
 C1DD   2AB689    ld   hl, (089B6h) 
 C1E0   3A418A    ld   a, (08A41h)  
 C1E3   5F        ld   e, a    
 C1E4   1600      ld   d, 00h
 C1E6   37        scf          
 C1E7   ED52      sbc  hl, de  
 C1E9   ED62      sbc  hl, hl  
 C1EB   23        inc  hl      
 C1EC   E5        push hl      
 C1ED   2AB889    ld   hl, (089B8h) 
 C1F0   3A428A    ld   a, (08A42h)  
 C1F3   5F        ld   e, a    
 C1F4   1600      ld   d, 00h
 C1F6   AF        xor  a       
 C1F7   ED52      sbc  hl, de  
 C1F9   67        ld   h, a    
 C1FA   17        rla          
 C1FB   6F        ld   l, a    
 C1FC   D1        pop  de      
 C1FD   7D        ld   a, l    
 C1FE   A3        and  e       
 C1FF   6F        ld   l, a    
 C200   E5        push hl      
 C201   2A488A    ld   hl, (08A48h) 
 C204   AF        xor  a       
 C205   BD        cp   l       
 C206   ED62      sbc  hl, hl  
 C208   23        inc  hl      
 C209   D1        pop  de      
 C20A   7D        ld   a, l    
 C20B   A3        and  e       
 C20C   6F        ld   l, a    
 C20D   CA2EC2    jp   z, Label292
 C210   CDACDE    call Label15
 C213   AF        xor  a       
 C214   67        ld   h, a    
 C215   3C        inc  a       
 C216   A5        and  l       
 C217   6F        ld   l, a    
 C218   23        inc  hl      
 C219   7D        ld   a, l    
 C21A   3D        dec  a       
 C21B   B4        or   h       
 C21C   2802      jr   z, Label293
 C21E   ED62      sbc  hl, hl  

Label293:
 C220   7C        ld   a, h    
 C221   B5        or   l       
 C222   CA2BC2    jp   z, Label294
 C225   CD8CC5    call Label290
 C228   C32EC2    jp   Label292

Label294:
 C22B   CDF0C4    call Label295

Label292:
 C22E   2AB689    ld   hl, (089B6h) 
 C231   3A418A    ld   a, (08A41h)  
 C234   5F        ld   e, a    
 C235   1600      ld   d, 00h
 C237   AF        xor  a       
 C238   ED52      sbc  hl, de  
 C23A   67        ld   h, a    
 C23B   17        rla          
 C23C   6F        ld   l, a    
 C23D   E5        push hl      
 C23E   2AB889    ld   hl, (089B8h) 
 C241   3A428A    ld   a, (08A42h)  
 C244   5F        ld   e, a    
 C245   1600      ld   d, 00h
 C247   37        scf          
 C248   ED52      sbc  hl, de  
 C24A   ED62      sbc  hl, hl  
 C24C   23        inc  hl      
 C24D   D1        pop  de      
 C24E   7D        ld   a, l    
 C24F   A3        and  e       
 C250   6F        ld   l, a    
 C251   E5        push hl      
 C252   2A488A    ld   hl, (08A48h) 
 C255   AF        xor  a       
 C256   BD        cp   l       
 C257   ED62      sbc  hl, hl  
 C259   23        inc  hl      
 C25A   D1        pop  de      
 C25B   7D        ld   a, l    
 C25C   A3        and  e       
 C25D   6F        ld   l, a    
 C25E   CA7FC2    jp   z, Label296
 C261   CDACDE    call Label15
 C264   AF        xor  a       
 C265   67        ld   h, a    
 C266   3C        inc  a       
 C267   A5        and  l       
 C268   6F        ld   l, a    
 C269   23        inc  hl      
 C26A   7D        ld   a, l    
 C26B   3D        dec  a       
 C26C   B4        or   h       
 C26D   2802      jr   z, Label297
 C26F   ED62      sbc  hl, hl  

Label297:
 C271   7C        ld   a, h    
 C272   B5        or   l       
 C273   CA7CC2    jp   z, Label298
 C276   CD5CC5    call Label299
 C279   C37FC2    jp   Label296

Label298:
 C27C   CD26C5    call Label291

Label296:
 C27F   2AB689    ld   hl, (089B6h) 
 C282   3A418A    ld   a, (08A41h)  
 C285   5F        ld   e, a    
 C286   1600      ld   d, 00h
 C288   37        scf          
 C289   ED52      sbc  hl, de  
 C28B   ED62      sbc  hl, hl  
 C28D   23        inc  hl      
 C28E   E5        push hl      
 C28F   2AB889    ld   hl, (089B8h) 
 C292   3A428A    ld   a, (08A42h)  
 C295   5F        ld   e, a    
 C296   1600      ld   d, 00h
 C298   37        scf          
 C299   ED52      sbc  hl, de  
 C29B   ED62      sbc  hl, hl  
 C29D   23        inc  hl      
 C29E   D1        pop  de      
 C29F   7D        ld   a, l    
 C2A0   A3        and  e       
 C2A1   6F        ld   l, a    
 C2A2   E5        push hl      
 C2A3   2A488A    ld   hl, (08A48h) 
 C2A6   AF        xor  a       
 C2A7   BD        cp   l       
 C2A8   ED62      sbc  hl, hl  
 C2AA   23        inc  hl      
 C2AB   D1        pop  de      
 C2AC   7D        ld   a, l    
 C2AD   A3        and  e       
 C2AE   6F        ld   l, a    
 C2AF   CAD0C2    jp   z, Label300
 C2B2   CDACDE    call Label15
 C2B5   AF        xor  a       
 C2B6   67        ld   h, a    
 C2B7   3C        inc  a       
 C2B8   A5        and  l       
 C2B9   6F        ld   l, a    
 C2BA   23        inc  hl      
 C2BB   7D        ld   a, l    
 C2BC   3D        dec  a       
 C2BD   B4        or   h       
 C2BE   2802      jr   z, Label301
 C2C0   ED62      sbc  hl, hl  

Label301:
 C2C2   7C        ld   a, h    
 C2C3   B5        or   l       
 C2C4   CACDC2    jp   z, Label302
 C2C7   CDF0C4    call Label295
 C2CA   C3D0C2    jp   Label300

Label302:
 C2CD   CD5CC5    call Label299

Label300:
 C2D0   2AB689    ld   hl, (089B6h) 
 C2D3   3A418A    ld   a, (08A41h)  
 C2D6   5F        ld   e, a    
 C2D7   1600      ld   d, 00h
 C2D9   AF        xor  a       
 C2DA   ED52      sbc  hl, de  
 C2DC   67        ld   h, a    
 C2DD   17        rla          
 C2DE   6F        ld   l, a    
 C2DF   E5        push hl      
 C2E0   2A488A    ld   hl, (08A48h) 
 C2E3   AF        xor  a       
 C2E4   BD        cp   l       
 C2E5   ED62      sbc  hl, hl  
 C2E7   23        inc  hl      
 C2E8   D1        pop  de      
 C2E9   7D        ld   a, l    
 C2EA   A3        and  e       
 C2EB   6F        ld   l, a    
 C2EC   CAF2C2    jp   z, Label303
 C2EF   CD26C5    call Label291

Label303:
 C2F2   2AB689    ld   hl, (089B6h) 
 C2F5   3A418A    ld   a, (08A41h)  
 C2F8   5F        ld   e, a    
 C2F9   1600      ld   d, 00h
 C2FB   37        scf          
 C2FC   ED52      sbc  hl, de  
 C2FE   ED62      sbc  hl, hl  
 C300   23        inc  hl      
 C301   E5        push hl      
 C302   2A488A    ld   hl, (08A48h) 
 C305   AF        xor  a       
 C306   BD        cp   l       
 C307   ED62      sbc  hl, hl  
 C309   23        inc  hl      
 C30A   D1        pop  de      
 C30B   7D        ld   a, l    
 C30C   A3        and  e       
 C30D   6F        ld   l, a    
 C30E   CA14C3    jp   z, Label304
 C311   CDF0C4    call Label295

Label304:
 C314   2AB889    ld   hl, (089B8h) 
 C317   3A428A    ld   a, (08A42h)  
 C31A   5F        ld   e, a    
 C31B   1600      ld   d, 00h
 C31D   AF        xor  a       
 C31E   ED52      sbc  hl, de  
 C320   67        ld   h, a    
 C321   17        rla          
 C322   6F        ld   l, a    
 C323   E5        push hl      
 C324   2A488A    ld   hl, (08A48h) 
 C327   AF        xor  a       
 C328   BD        cp   l       
 C329   ED62      sbc  hl, hl  
 C32B   23        inc  hl      
 C32C   D1        pop  de      
 C32D   7D        ld   a, l    
 C32E   A3        and  e       
 C32F   6F        ld   l, a    
 C330   CA36C3    jp   z, Label305
 C333   CD8CC5    call Label290

Label305:
 C336   2AB889    ld   hl, (089B8h) 
 C339   3A428A    ld   a, (08A42h)  
 C33C   5F        ld   e, a    
 C33D   1600      ld   d, 00h
 C33F   37        scf          
 C340   ED52      sbc  hl, de  
 C342   ED62      sbc  hl, hl  
 C344   23        inc  hl      
 C345   E5        push hl      
 C346   2A488A    ld   hl, (08A48h) 
 C349   AF        xor  a       
 C34A   BD        cp   l       
 C34B   ED62      sbc  hl, hl  
 C34D   23        inc  hl      
 C34E   D1        pop  de      
 C34F   7D        ld   a, l    
 C350   A3        and  e       
 C351   6F        ld   l, a    
 C352   CA58C3    jp   z, Label282
 C355   CD5CC5    call Label299

Label282:
 C358   C325C0    jp   Label306

Label281:
 C35B   C3FBBF    jp   Label307

Label274:
 C35E   2A538A    ld   hl, (08A53h) 
 C361   AF        xor  a       
 C362   67        ld   h, a    
 C363   B5        or   l       
 C364   C2D1C3    jp   nz, Label308
 C367   CDACDE    call Label15
 C36A   110700    ld   de, 0007h
 C36D   CD6ADE    call Label16
 C370   23        inc  hl      
 C371   7D        ld   a, l    
 C372   D607      sub  07h
 C374   B4        or   h       
 C375   C6FF      add  a, 0FFh
 C377   ED62      sbc  hl, hl  
 C379   23        inc  hl      
 C37A   7C        ld   a, h    
 C37B   B5        or   l       
 C37C   CAD1C3    jp   z, Label308
 C37F   2A5A8A    ld   hl, (08A5Ah) 
 C382   2600      ld   h, 00h
 C384   11EC86    ld   de, saveSScreen
 C387   19        add  hl, de  
 C388   6E        ld   l, (hl) 
 C389   AF        xor  a       
 C38A   67        ld   h, a    
 C38B   B5        or   l       
 C38C   C2D1C3    jp   nz, Label308
 C38F   216D00    ld   hl, 006Dh
 C392   E5        push hl      
 C393   2A5A8A    ld   hl, (08A5Ah) 
 C396   2600      ld   h, 00h
 C398   11EC86    ld   de, saveSScreen
 C39B   19        add  hl, de  
 C39C   D1        pop  de      
 C39D   73        ld   (hl), e 
 C39E   2A5A8A    ld   hl, (08A5Ah) 
 C3A1   2600      ld   h, 00h
 C3A3   11E000    ld   de, 00E0h
 C3A6   19        add  hl, de  
 C3A7   22C089    ld   (089C0h), hl 
 C3AA   117000    ld   de, 0070h
 C3AD   19        add  hl, de  
 C3AE   22C289    ld   (089C2h), hl 
 C3B1   21E100    ld   hl, 00E1h
 C3B4   E5        push hl      
 C3B5   2AC089    ld   hl, (089C0h) 
 C3B8   11EC86    ld   de, saveSScreen
 C3BB   19        add  hl, de  
 C3BC   D1        pop  de      
 C3BD   73        ld   (hl), e 
 C3BE   CDACDE    call Label15
 C3C1   AF        xor  a       
 C3C2   67        ld   h, a    
 C3C3   3C        inc  a       
 C3C4   A5        and  l       
 C3C5   6F        ld   l, a    
 C3C6   23        inc  hl      
 C3C7   E5        push hl      
 C3C8   2AC289    ld   hl, (089C2h) 
 C3CB   11EC86    ld   de, saveSScreen
 C3CE   19        add  hl, de  
 C3CF   D1        pop  de      
 C3D0   73        ld   (hl), e 

Label308:
 C3D1   210000    ld   hl, 0000h
 C3D4   7D        ld   a, l    
 C3D5   32518A    ld   (08A51h), a  
 C3D8   C9        ret          

Label317:
 C3D9   2A448A    ld   hl, (08A44h) 
 C3DC   2600      ld   h, 00h
 C3DE   E5        push hl      
 C3DF   2ABA89    ld   hl, (089BAh) 
 C3E2   11EC86    ld   de, saveSScreen
 C3E5   19        add  hl, de  
 C3E6   D1        pop  de      
 C3E7   73        ld   (hl), e 
 C3E8   2ABA89    ld   hl, (089BAh) 
 C3EB   117000    ld   de, 0070h
 C3EE   19        add  hl, de  
 C3EF   22EA89    ld   (089EAh), hl 
 C3F2   210100    ld   hl, 0001h
 C3F5   E5        push hl      
 C3F6   2AEA89    ld   hl, (089EAh) 
 C3F9   11EC86    ld   de, saveSScreen
 C3FC   19        add  hl, de  
 C3FD   D1        pop  de      
 C3FE   73        ld   (hl), e 
 C3FF   2ABA89    ld   hl, (089BAh) 
 C402   11E000    ld   de, 00E0h
 C405   19        add  hl, de  
 C406   22EA89    ld   (089EAh), hl 
 C409   2A458A    ld   hl, (08A45h) 
 C40C   2600      ld   h, 00h
 C40E   E5        push hl      
 C40F   2AEA89    ld   hl, (089EAh) 
 C412   11EC86    ld   de, saveSScreen
 C415   19        add  hl, de  
 C416   D1        pop  de      
 C417   73        ld   (hl), e 
 C418   2ABA89    ld   hl, (089BAh) 
 C41B   115001    ld   de, 00150h
 C41E   19        add  hl, de  
 C41F   22EA89    ld   (089EAh), hl 
 C422   2A498A    ld   hl, (08A49h) 
 C425   2600      ld   h, 00h
 C427   E5        push hl      
 C428   2AEA89    ld   hl, (089EAh) 
 C42B   11EC86    ld   de, saveSScreen
 C42E   19        add  hl, de  
 C42F   D1        pop  de      
 C430   73        ld   (hl), e 
 C431   210100    ld   hl, 0001h
 C434   7D        ld   a, l    
 C435   32488A    ld   (08A48h), a  
 C438   C9        ret          

Label319:
 C439   2ABA89    ld   hl, (089BAh) 
 C43C   11EC86    ld   de, saveSScreen
 C43F   19        add  hl, de  
 C440   6E        ld   l, (hl) 
 C441   2600      ld   h, 00h
 C443   7D        ld   a, l    
 C444   D663      sub  63h
 C446   B4        or   h       
 C447   C6FF      add  a, 0FFh
 C449   ED62      sbc  hl, hl  
 C44B   23        inc  hl      
 C44C   7C        ld   a, h    
 C44D   B5        or   l       
 C44E   CA57C4    jp   z, Label309
 C451   CD5FC4    call Label310
 C454   C35EC4    jp   Label311

Label309:
 C457   210100    ld   hl, 0001h
 C45A   7D        ld   a, l    
 C45B   32488A    ld   (08A48h), a  

Label311:
 C45E   C9        ret          

Label310:
 C45F   216300    ld   hl, 0063h
 C462   7D        ld   a, l    
 C463   32438A    ld   (08A43h), a  
 C466   2A3D8A    ld   hl, (timer2max) 
 C469   2600      ld   h, 00h
 C46B   22E889    ld   (089E8h), hl 
 C46E   2A608A    ld   hl, (08A60h) 
 C471   2600      ld   h, 00h
 C473   7D        ld   a, l    
 C474   D66C      sub  6Ch
 C476   B4        or   h       
 C477   C6FF      add  a, 0FFh
 C479   ED62      sbc  hl, hl  
 C47B   23        inc  hl      
 C47C   7C        ld   a, h    
 C47D   B5        or   l       
 C47E   CA84C4    jp   z, Label312
 C481   CD03D8    call Label313

Label312:
 C484   2A498A    ld   hl, (08A49h) 
 C487   2600      ld   h, 00h
 C489   119901    ld   de, 00199h
 C48C   CD38E0    call Label261
 C48F   22C489    ld   (089C4h), hl 
 C492   2A498A    ld   hl, (08A49h) 
 C495   2600      ld   h, 00h
 C497   119900    ld   de, 0099h
 C49A   CD38E0    call Label261
 C49D   22CC89    ld   (089CCh), hl 
 C4A0   7D        ld   a, l    
 C4A1   B4        or   h       
 C4A2   C6FF      add  a, 0FFh
 C4A4   ED62      sbc  hl, hl  
 C4A6   23        inc  hl      
 C4A7   7C        ld   a, h    
 C4A8   B5        or   l       
 C4A9   CAB2C4    jp   z, Label314
 C4AC   210100    ld   hl, 0001h
 C4AF   22CC89    ld   (089CCh), hl 

Label314:
 C4B2   2A3D8A    ld   hl, (timer2max) 
 C4B5   2600      ld   h, 00h
 C4B7   E5        push hl      
 C4B8   CDACDE    call Label15
 C4BB   ED5BC489  ld   de, (089C4h) 
 C4BF   CD6ADE    call Label16
 C4C2   ED5BCC89  ld   de, (089CCh) 
 C4C6   19        add  hl, de  
 C4C7   D1        pop  de      
 C4C8   EB        ex   de, hl  
 C4C9   B7        or   a       
 C4CA   ED52      sbc  hl, de  
 C4CC   7D        ld   a, l    
 C4CD   323D8A    ld   (timer2max), a  
 C4D0   2600      ld   h, 00h
 C4D2   ED5BE889  ld   de, (089E8h) 
 C4D6   37        scf          
 C4D7   ED52      sbc  hl, de  
 C4D9   ED62      sbc  hl, hl  
 C4DB   23        inc  hl      
 C4DC   7C        ld   a, h    
 C4DD   B5        or   l       
 C4DE   CAE8C4    jp   z, Label315
 C4E1   210000    ld   hl, 0000h
 C4E4   7D        ld   a, l    
 C4E5   323D8A    ld   (timer2max), a  

Label315:
 C4E8   210100    ld   hl, 0001h
 C4EB   7D        ld   a, l    
 C4EC   32488A    ld   (08A48h), a  
 C4EF   C9        ret          

Label295:
 C4F0   2ABA89    ld   hl, (089BAh) 
 C4F3   11F2FF    ld   de, 0FFF2h
 C4F6   19        add  hl, de  
 C4F7   22BA89    ld   (089BAh), hl 
 C4FA   11EC86    ld   de, saveSScreen
 C4FD   19        add  hl, de  
 C4FE   6E        ld   l, (hl) 
 C4FF   AF        xor  a       
 C500   67        ld   h, a    
 C501   B5        or   l       
 C502   C222C5    jp   nz, Label316
 C505   CDD9C3    call Label317
 C508   2ABA89    ld   hl, (089BAh) 
 C50B   110E00    ld   de, 000Eh
 C50E   19        add  hl, de  
 C50F   22BA89    ld   (089BAh), hl 
 C512   210000    ld   hl, 0000h
 C515   E5        push hl      
 C516   2ABA89    ld   hl, (089BAh) 
 C519   11EC86    ld   de, saveSScreen
 C51C   19        add  hl, de  
 C51D   D1        pop  de      
 C51E   73        ld   (hl), e 
 C51F   C325C5    jp   Label318

Label316:
 C522   CD39C4    call Label319

Label318:
 C525   C9        ret          

Label291:
 C526   2ABA89    ld   hl, (089BAh) 
 C529   110E00    ld   de, 000Eh
 C52C   19        add  hl, de  
 C52D   22BA89    ld   (089BAh), hl 
 C530   11EC86    ld   de, saveSScreen
 C533   19        add  hl, de  
 C534   6E        ld   l, (hl) 
 C535   AF        xor  a       
 C536   67        ld   h, a    
 C537   B5        or   l       
 C538   C258C5    jp   nz, Label320
 C53B   CDD9C3    call Label317
 C53E   2ABA89    ld   hl, (089BAh) 
 C541   11F2FF    ld   de, 0FFF2h
 C544   19        add  hl, de  
 C545   22BA89    ld   (089BAh), hl 
 C548   210000    ld   hl, 0000h
 C54B   E5        push hl      
 C54C   2ABA89    ld   hl, (089BAh) 
 C54F   11EC86    ld   de, saveSScreen
 C552   19        add  hl, de  
 C553   D1        pop  de      
 C554   73        ld   (hl), e 
 C555   C35BC5    jp   Label321

Label320:
 C558   CD39C4    call Label319

Label321:
 C55B   C9        ret          

Label299:
 C55C   2ABA89    ld   hl, (089BAh) 
 C55F   2B        dec  hl      
 C560   22BA89    ld   (089BAh), hl 
 C563   11EC86    ld   de, saveSScreen
 C566   19        add  hl, de  
 C567   6E        ld   l, (hl) 
 C568   AF        xor  a       
 C569   67        ld   h, a    
 C56A   B5        or   l       
 C56B   C288C5    jp   nz, Label322
 C56E   CDD9C3    call Label317
 C571   2ABA89    ld   hl, (089BAh) 
 C574   23        inc  hl      
 C575   22BA89    ld   (089BAh), hl 
 C578   210000    ld   hl, 0000h
 C57B   E5        push hl      
 C57C   2ABA89    ld   hl, (089BAh) 
 C57F   11EC86    ld   de, saveSScreen
 C582   19        add  hl, de  
 C583   D1        pop  de      
 C584   73        ld   (hl), e 
 C585   C38BC5    jp   Label323

Label322:
 C588   CD39C4    call Label319

Label323:
 C58B   C9        ret          

Label290:
 C58C   2ABA89    ld   hl, (089BAh) 
 C58F   23        inc  hl      
 C590   22BA89    ld   (089BAh), hl 
 C593   11EC86    ld   de, saveSScreen
 C596   19        add  hl, de  
 C597   6E        ld   l, (hl) 
 C598   AF        xor  a       
 C599   67        ld   h, a    
 C59A   B5        or   l       
 C59B   C2B8C5    jp   nz, Label324
 C59E   CDD9C3    call Label317
 C5A1   2ABA89    ld   hl, (089BAh) 
 C5A4   2B        dec  hl      
 C5A5   22BA89    ld   (089BAh), hl 
 C5A8   210000    ld   hl, 0000h
 C5AB   E5        push hl      
 C5AC   2ABA89    ld   hl, (089BAh) 
 C5AF   11EC86    ld   de, saveSScreen
 C5B2   19        add  hl, de  
 C5B3   D1        pop  de      
 C5B4   73        ld   (hl), e 
 C5B5   C3BBC5    jp   Label325

Label324:
 C5B8   CD39C4    call Label319

Label325:
 C5BB   C9        ret          

Label393:
 C5BC   2A3D8A    ld   hl, (timer2max) 
 C5BF   2600      ld   h, 00h
 C5C1   111FFF    ld   de, 0FF1Fh
 C5C4   19        add  hl, de  
 C5C5   ED62      sbc  hl, hl  
 C5C7   23        inc  hl      
 C5C8   7C        ld   a, h    
 C5C9   B5        or   l       
 C5CA   CAE8C5    jp   z, Label326
 C5CD   2A3D8A    ld   hl, (timer2max) 
 C5D0   2600      ld   h, 00h
 C5D2   E5        push hl      
 C5D3   210200    ld   hl, 0002h
 C5D6   3A468A    ld   a, (08A46h)  
 C5D9   5F        ld   e, a    
 C5DA   1600      ld   d, 00h
 C5DC   CD5EE0    call Label210
 C5DF   D1        pop  de      
 C5E0   19        add  hl, de  
 C5E1   7D        ld   a, l    
 C5E2   323D8A    ld   (timer2max), a  
 C5E5   C3EFC5    jp   Label327

Label326:
 C5E8   21FA00    ld   hl, 00FAh
 C5EB   7D        ld   a, l    
 C5EC   323D8A    ld   (timer2max), a  

Label327:
 C5EF   C9        ret          

Label88:
 C5F0   2A3F8A    ld   hl, (08A3Fh) 
 C5F3   2600      ld   h, 00h
 C5F5   7D        ld   a, l    
 C5F6   D60B      sub  0Bh
 C5F8   B4        or   h       
 C5F9   C6FF      add  a, 0FFh
 C5FB   ED62      sbc  hl, hl  
 C5FD   23        inc  hl      
 C5FE   E5        push hl      
 C5FF   2A4A8A    ld   hl, (08A4Ah) 
 C602   2600      ld   h, 00h
 C604   7D        ld   a, l    
 C605   B4        or   h       
 C606   2803      jr   z, Label328
 C608   210100    ld   hl, 0001h

Label328:
 C60B   D1        pop  de      
 C60C   7D        ld   a, l    
 C60D   A3        and  e       
 C60E   6F        ld   l, a    
 C60F   B4        or   h       
 C610   CA20C6    jp   z, Label329
 C613   2A4A8A    ld   hl, (08A4Ah) 
 C616   2600      ld   h, 00h
 C618   2B        dec  hl      
 C619   7D        ld   a, l    
 C61A   324A8A    ld   (08A4Ah), a  
 C61D   C34CC6    jp   Label330

Label329:
 C620   2A3F8A    ld   hl, (08A3Fh) 
 C623   2600      ld   h, 00h
 C625   7D        ld   a, l    
 C626   D60A      sub  0Ah
 C628   B4        or   h       
 C629   C6FF      add  a, 0FFh
 C62B   ED62      sbc  hl, hl  
 C62D   23        inc  hl      
 C62E   E5        push hl      
 C62F   2A4A8A    ld   hl, (08A4Ah) 
 C632   2600      ld   h, 00h
 C634   11C1FF    ld   de, 0FFC1h
 C637   19        add  hl, de  
 C638   ED62      sbc  hl, hl  
 C63A   23        inc  hl      
 C63B   D1        pop  de      
 C63C   7D        ld   a, l    
 C63D   A3        and  e       
 C63E   6F        ld   l, a    
 C63F   CA4CC6    jp   z, Label330
 C642   2A4A8A    ld   hl, (08A4Ah) 
 C645   2600      ld   h, 00h
 C647   23        inc  hl      
 C648   7D        ld   a, l    
 C649   324A8A    ld   (08A4Ah), a  

Label330:
 C64C   2A4A8A    ld   hl, (08A4Ah) 
 C64F   2600      ld   h, 00h
 C651   7D        ld   a, l    
 C652   F6C0      or   0C0h
 C654   D310      out  (10h), a  
 C656   C9        ret          

Label271:
 C657   210000    ld   hl, 0000h
 C65A   22C289    ld   (089C2h), hl 
 C65D   2A3C8A    ld   hl, (timer2) 
 C660   2600      ld   h, 00h
 C662   E5        push hl      
 C663   210500    ld   hl, 0005h
 C666   3A468A    ld   a, (08A46h)  
 C669   5F        ld   e, a    
 C66A   1600      ld   d, 00h
 C66C   CD5EE0    call Label210
 C66F   D1        pop  de      
 C670   EB        ex   de, hl  
 C671   B7        or   a       
 C672   ED52      sbc  hl, de  
 C674   ED62      sbc  hl, hl  
 C676   23        inc  hl      
 C677   E5        push hl      
 C678   2A468A    ld   hl, (08A46h) 
 C67B   2600      ld   h, 00h
 C67D   11E9FF    ld   de, 0FFE9h
 C680   19        add  hl, de  
 C681   ED62      sbc  hl, hl  
 C683   23        inc  hl      
 C684   D1        pop  de      
 C685   7D        ld   a, l    
 C686   A3        and  e       
 C687   6F        ld   l, a    
 C688   CADAC6    jp   z, Label331
 C68B   210100    ld   hl, 0001h
 C68E   22C289    ld   (089C2h), hl 
 C691   210000    ld   hl, 0000h
 C694   7D        ld   a, l    
 C695   323C8A    ld   (timer2), a  
 C698   2A468A    ld   hl, (08A46h) 
 C69B   2600      ld   h, 00h
 C69D   23        inc  hl      
 C69E   7D        ld   a, l    
 C69F   32468A    ld   (08A46h), a  
 C6A2   2A3D8A    ld   hl, (timer2max) 
 C6A5   2600      ld   h, 00h
 C6A7   E5        push hl      
 C6A8   210500    ld   hl, 0005h
 C6AB   3A468A    ld   a, (08A46h)  
 C6AE   5F        ld   e, a    
 C6AF   1600      ld   d, 00h
 C6B1   CD5EE0    call Label210
 C6B4   D1        pop  de      
 C6B5   37        scf          
 C6B6   ED52      sbc  hl, de  
 C6B8   ED62      sbc  hl, hl  
 C6BA   23        inc  hl      
 C6BB   7C        ld   a, h    
 C6BC   B5        or   l       
 C6BD   CAD0C6    jp   z, Label332
 C6C0   210500    ld   hl, 0005h
 C6C3   3A468A    ld   a, (08A46h)  
 C6C6   5F        ld   e, a    
 C6C7   1600      ld   d, 00h
 C6C9   CD5EE0    call Label210
 C6CC   7D        ld   a, l    
 C6CD   323D8A    ld   (timer2max), a  

Label332:
 C6D0   210300    ld   hl, 0003h
 C6D3   7D        ld   a, l    
 C6D4   32438A    ld   (08A43h), a  
 C6D7   C330C7    jp   Label333

Label331:
 C6DA   2A3C8A    ld   hl, (timer2) 
 C6DD   2600      ld   h, 00h
 C6DF   AF        xor  a       
 C6E0   111EFF    ld   de, 0FF1Eh
 C6E3   19        add  hl, de  
 C6E4   67        ld   h, a    
 C6E5   17        rla          
 C6E6   6F        ld   l, a    
 C6E7   B4        or   h       
 C6E8   CA30C7    jp   z, Label333
 C6EB   210100    ld   hl, 0001h
 C6EE   22C289    ld   (089C2h), hl 
 C6F1   210000    ld   hl, 0000h
 C6F4   7D        ld   a, l    
 C6F5   323C8A    ld   (timer2), a  
 C6F8   2A468A    ld   hl, (08A46h) 
 C6FB   2600      ld   h, 00h
 C6FD   23        inc  hl      
 C6FE   7D        ld   a, l    
 C6FF   32468A    ld   (08A46h), a  
 C702   2A3D8A    ld   hl, (timer2max) 
 C705   2600      ld   h, 00h
 C707   E5        push hl      
 C708   210500    ld   hl, 0005h
 C70B   3A468A    ld   a, (08A46h)  
 C70E   5F        ld   e, a    
 C70F   1600      ld   d, 00h
 C711   CD5EE0    call Label210
 C714   D1        pop  de      
 C715   37        scf          
 C716   ED52      sbc  hl, de  
 C718   ED62      sbc  hl, hl  
 C71A   23        inc  hl      
 C71B   7C        ld   a, h    
 C71C   B5        or   l       
 C71D   CA30C7    jp   z, Label333
 C720   210500    ld   hl, 0005h
 C723   3A468A    ld   a, (08A46h)  
 C726   5F        ld   e, a    
 C727   1600      ld   d, 00h
 C729   CD5EE0    call Label210
 C72C   7D        ld   a, l    
 C72D   323D8A    ld   (timer2max), a  

Label333:
 C730   2AC289    ld   hl, (089C2h) 
 C733   7D        ld   a, l    
 C734   3D        dec  a       
 C735   B4        or   h       
 C736   2802      jr   z, Label334
 C738   ED62      sbc  hl, hl  

Label334:
 C73A   7C        ld   a, h    
 C73B   B5        or   l       
 C73C   CA67C7    jp   z, Label335
 C73F   210100    ld   hl, 0001h
 C742   1804      jr   Label336

Label339:
 C744   2AC289    ld   hl, (089C2h) 
 C747   23        inc  hl      

Label336:
 C748   22C289    ld   (089C2h), hl 
 C74B   EB        ex   de, hl  
 C74C   210A00    ld   hl, 000Ah
 C74F   B7        or   a       
 C750   ED52      sbc  hl, de  
 C752   DA67C7    jp   c, Label335
 C755   CD84DF    call Label337
 C758   CDBADE    call Label21
 C75B   215E01    ld   hl, 0015Eh

Label338:
 C75E   10FE      djnz Label338
 C760   2B        dec  hl      
 C761   7D        ld   a, l    
 C762   B4        or   h       
 C763   20F9      jr   nz, Label338
 C765   18DD      jr   Label339

Label335:
 C767   C9        ret          

Label266:
 C768   CDACDE    call Label15
 C76B   111400    ld   de, 0014h
 C76E   CD6ADE    call Label16
 C771   23        inc  hl      
 C772   22E889    ld   (089E8h), hl 
 C775   7D        ld   a, l    
 C776   3D        dec  a       
 C777   B4        or   h       
 C778   2802      jr   z, Label340
 C77A   ED62      sbc  hl, hl  

Label340:
 C77C   7C        ld   a, h    
 C77D   B5        or   l       
 C77E   CA91C7    jp   z, Label341
 C781   210900    ld   hl, 0009h
 C784   E5        push hl      
 C785   2ABA89    ld   hl, (089BAh) 
 C788   11EC86    ld   de, saveSScreen
 C78B   19        add  hl, de  
 C78C   D1        pop  de      
 C78D   73        ld   (hl), e 
 C78E   C358C8    jp   Label342

Label341:
 C791   2AE889    ld   hl, (089E8h) 
 C794   11FBFF    ld   de, 0FFFBh
 C797   19        add  hl, de  
 C798   ED62      sbc  hl, hl  
 C79A   23        inc  hl      
 C79B   7C        ld   a, h    
 C79C   B5        or   l       
 C79D   CAB0C7    jp   z, Label343
 C7A0   210300    ld   hl, 0003h
 C7A3   E5        push hl      
 C7A4   2ABA89    ld   hl, (089BAh) 
 C7A7   11EC86    ld   de, saveSScreen
 C7AA   19        add  hl, de  
 C7AB   D1        pop  de      
 C7AC   73        ld   (hl), e 
 C7AD   C358C8    jp   Label342

Label343:
 C7B0   2AE889    ld   hl, (089E8h) 
 C7B3   11F7FF    ld   de, 0FFF7h
 C7B6   19        add  hl, de  
 C7B7   ED62      sbc  hl, hl  
 C7B9   23        inc  hl      
 C7BA   7C        ld   a, h    
 C7BB   B5        or   l       
 C7BC   CACFC7    jp   z, Label344
 C7BF   210400    ld   hl, 0004h
 C7C2   E5        push hl      
 C7C3   2ABA89    ld   hl, (089BAh) 
 C7C6   11EC86    ld   de, saveSScreen
 C7C9   19        add  hl, de  
 C7CA   D1        pop  de      
 C7CB   73        ld   (hl), e 
 C7CC   C358C8    jp   Label342

Label344:
 C7CF   2AE889    ld   hl, (089E8h) 
 C7D2   11F5FF    ld   de, 0FFF5h
 C7D5   19        add  hl, de  
 C7D6   ED62      sbc  hl, hl  
 C7D8   23        inc  hl      
 C7D9   7C        ld   a, h    
 C7DA   B5        or   l       
 C7DB   CAEEC7    jp   z, Label345
 C7DE   210600    ld   hl, 0006h
 C7E1   E5        push hl      
 C7E2   2ABA89    ld   hl, (089BAh) 
 C7E5   11EC86    ld   de, saveSScreen
 C7E8   19        add  hl, de  
 C7E9   D1        pop  de      
 C7EA   73        ld   (hl), e 
 C7EB   C358C8    jp   Label342

Label345:
 C7EE   2AE889    ld   hl, (089E8h) 
 C7F1   11F3FF    ld   de, 0FFF3h
 C7F4   19        add  hl, de  
 C7F5   ED62      sbc  hl, hl  
 C7F7   23        inc  hl      
 C7F8   7C        ld   a, h    
 C7F9   B5        or   l       
 C7FA   CA0DC8    jp   z, Label346
 C7FD   210700    ld   hl, 0007h
 C800   E5        push hl      
 C801   2ABA89    ld   hl, (089BAh) 
 C804   11EC86    ld   de, saveSScreen
 C807   19        add  hl, de  
 C808   D1        pop  de      
 C809   73        ld   (hl), e 
 C80A   C358C8    jp   Label342

Label346:
 C80D   2AE889    ld   hl, (089E8h) 
 C810   11F2FF    ld   de, 0FFF2h
 C813   19        add  hl, de  
 C814   ED62      sbc  hl, hl  
 C816   23        inc  hl      
 C817   7C        ld   a, h    
 C818   B5        or   l       
 C819   CA2CC8    jp   z, Label347
 C81C   210800    ld   hl, 0008h
 C81F   E5        push hl      
 C820   2ABA89    ld   hl, (089BAh) 
 C823   11EC86    ld   de, saveSScreen
 C826   19        add  hl, de  
 C827   D1        pop  de      
 C828   73        ld   (hl), e 
 C829   C358C8    jp   Label342

Label347:
 C82C   2AE889    ld   hl, (089E8h) 
 C82F   AF        xor  a       
 C830   11EDFF    ld   de, 0FFEDh
 C833   19        add  hl, de  
 C834   67        ld   h, a    
 C835   17        rla          
 C836   6F        ld   l, a    
 C837   B4        or   h       
 C838   CA4BC8    jp   z, Label348
 C83B   210500    ld   hl, 0005h
 C83E   E5        push hl      
 C83F   2ABA89    ld   hl, (089BAh) 
 C842   11EC86    ld   de, saveSScreen
 C845   19        add  hl, de  
 C846   D1        pop  de      
 C847   73        ld   (hl), e 
 C848   C358C8    jp   Label342

Label348:
 C84B   210000    ld   hl, 0000h
 C84E   E5        push hl      
 C84F   2ABA89    ld   hl, (089BAh) 
 C852   11EC86    ld   de, saveSScreen
 C855   19        add  hl, de  
 C856   D1        pop  de      
 C857   73        ld   (hl), e 

Label342:
 C858   C9        ret          

Label175:
 C859   211200    ld   hl, 0012h
 C85C   1804      jr   Label349

Label358:
 C85E   2AE889    ld   hl, (089E8h) 
 C861   23        inc  hl      

Label349:
 C862   22E889    ld   (089E8h), hl 
 C865   EB        ex   de, hl  
 C866   211600    ld   hl, 0016h
 C869   B7        or   a       
 C86A   ED52      sbc  hl, de  
 C86C   DA94C9    jp   c, Label350
 C86F   2AE889    ld   hl, (089E8h) 
 C872   113A8A    ld   de, statVars
 C875   19        add  hl, de  
 C876   6E        ld   l, (hl) 
 C877   2600      ld   h, 00h
 C879   11FDFF    ld   de, 0FFFDh
 C87C   19        add  hl, de  
 C87D   ED62      sbc  hl, hl  
 C87F   23        inc  hl      
 C880   7C        ld   a, h    
 C881   B5        or   l       
 C882   CA91C9    jp   z, Label351
 C885   2ABA89    ld   hl, (089BAh) 
 C888   11EC86    ld   de, saveSScreen
 C88B   19        add  hl, de  
 C88C   6E        ld   l, (hl) 
 C88D   2600      ld   h, 00h
 C88F   E5        push hl      
 C890   2AE889    ld   hl, (089E8h) 
 C893   113A8A    ld   de, statVars
 C896   19        add  hl, de  
 C897   D1        pop  de      
 C898   73        ld   (hl), e 
 C899   210000    ld   hl, 0000h
 C89C   E5        push hl      
 C89D   2ABA89    ld   hl, (089BAh) 
 C8A0   11EC86    ld   de, saveSScreen
 C8A3   19        add  hl, de  
 C8A4   D1        pop  de      
 C8A5   73        ld   (hl), e 
 C8A6   2AE889    ld   hl, (089E8h) 
 C8A9   113A8A    ld   de, statVars
 C8AC   19        add  hl, de  
 C8AD   6E        ld   l, (hl) 
 C8AE   2600      ld   h, 00h
 C8B0   7D        ld   a, l    
 C8B1   D603      sub  03h
 C8B3   B4        or   h       
 C8B4   C6FF      add  a, 0FFh
 C8B6   ED62      sbc  hl, hl  
 C8B8   23        inc  hl      
 C8B9   7C        ld   a, h    
 C8BA   B5        or   l       
 C8BB   CAC8C8    jp   z, Label352
 C8BE   210500    ld   hl, 0005h
 C8C1   7D        ld   a, l    
 C8C2   32438A    ld   (08A43h), a  
 C8C5   C391C9    jp   Label351

Label352:
 C8C8   2AE889    ld   hl, (089E8h) 
 C8CB   113A8A    ld   de, statVars
 C8CE   19        add  hl, de  
 C8CF   6E        ld   l, (hl) 
 C8D0   2600      ld   h, 00h
 C8D2   7D        ld   a, l    
 C8D3   D604      sub  04h
 C8D5   B4        or   h       
 C8D6   C6FF      add  a, 0FFh
 C8D8   ED62      sbc  hl, hl  
 C8DA   23        inc  hl      
 C8DB   7C        ld   a, h    
 C8DC   B5        or   l       
 C8DD   CAEAC8    jp   z, Label353
 C8E0   210600    ld   hl, 0006h
 C8E3   7D        ld   a, l    
 C8E4   32438A    ld   (08A43h), a  
 C8E7   C391C9    jp   Label351

Label353:
 C8EA   2AE889    ld   hl, (089E8h) 
 C8ED   113A8A    ld   de, statVars
 C8F0   19        add  hl, de  
 C8F1   6E        ld   l, (hl) 
 C8F2   2600      ld   h, 00h
 C8F4   7D        ld   a, l    
 C8F5   D605      sub  05h
 C8F7   B4        or   h       
 C8F8   C6FF      add  a, 0FFh
 C8FA   ED62      sbc  hl, hl  
 C8FC   23        inc  hl      
 C8FD   7C        ld   a, h    
 C8FE   B5        or   l       
 C8FF   CA0CC9    jp   z, Label354
 C902   210700    ld   hl, 0007h
 C905   7D        ld   a, l    
 C906   32438A    ld   (08A43h), a  
 C909   C391C9    jp   Label351

Label354:
 C90C   2AE889    ld   hl, (089E8h) 
 C90F   113A8A    ld   de, statVars
 C912   19        add  hl, de  
 C913   6E        ld   l, (hl) 
 C914   2600      ld   h, 00h
 C916   7D        ld   a, l    
 C917   D606      sub  06h
 C919   B4        or   h       
 C91A   C6FF      add  a, 0FFh
 C91C   ED62      sbc  hl, hl  
 C91E   23        inc  hl      
 C91F   7C        ld   a, h    
 C920   B5        or   l       
 C921   CA2EC9    jp   z, Label355
 C924   210800    ld   hl, 0008h
 C927   7D        ld   a, l    
 C928   32438A    ld   (08A43h), a  
 C92B   C391C9    jp   Label351

Label355:
 C92E   2AE889    ld   hl, (089E8h) 
 C931   113A8A    ld   de, statVars
 C934   19        add  hl, de  
 C935   6E        ld   l, (hl) 
 C936   2600      ld   h, 00h
 C938   7D        ld   a, l    
 C939   D607      sub  07h
 C93B   B4        or   h       
 C93C   C6FF      add  a, 0FFh
 C93E   ED62      sbc  hl, hl  
 C940   23        inc  hl      
 C941   7C        ld   a, h    
 C942   B5        or   l       
 C943   CA50C9    jp   z, Label356
 C946   210900    ld   hl, 0009h
 C949   7D        ld   a, l    
 C94A   32438A    ld   (08A43h), a  
 C94D   C391C9    jp   Label351

Label356:
 C950   2AE889    ld   hl, (089E8h) 
 C953   113A8A    ld   de, statVars
 C956   19        add  hl, de  
 C957   6E        ld   l, (hl) 
 C958   2600      ld   h, 00h
 C95A   7D        ld   a, l    
 C95B   D608      sub  08h
 C95D   B4        or   h       
 C95E   C6FF      add  a, 0FFh
 C960   ED62      sbc  hl, hl  
 C962   23        inc  hl      
 C963   7C        ld   a, h    
 C964   B5        or   l       
 C965   CA72C9    jp   z, Label357
 C968   210A00    ld   hl, 000Ah
 C96B   7D        ld   a, l    
 C96C   32438A    ld   (08A43h), a  
 C96F   C391C9    jp   Label351

Label357:
 C972   2AE889    ld   hl, (089E8h) 
 C975   113A8A    ld   de, statVars
 C978   19        add  hl, de  
 C979   6E        ld   l, (hl) 
 C97A   2600      ld   h, 00h
 C97C   7D        ld   a, l    
 C97D   D609      sub  09h
 C97F   B4        or   h       
 C980   C6FF      add  a, 0FFh
 C982   ED62      sbc  hl, hl  
 C984   23        inc  hl      
 C985   7C        ld   a, h    
 C986   B5        or   l       
 C987   CA91C9    jp   z, Label351
 C98A   210F00    ld   hl, 000Fh
 C98D   7D        ld   a, l    
 C98E   32438A    ld   (08A43h), a  

Label351:
 C991   C35EC8    jp   Label358

Label350:
 C994   2ABA89    ld   hl, (089BAh) 
 C997   11EC86    ld   de, saveSScreen
 C99A   19        add  hl, de  
 C99B   6E        ld   l, (hl) 
 C99C   AF        xor  a       
 C99D   67        ld   h, a    
 C99E   B5        or   l       
 C99F   CAA9C9    jp   z, Label359
 C9A2   210E00    ld   hl, 000Eh
 C9A5   7D        ld   a, l    
 C9A6   32438A    ld   (08A43h), a  

Label359:
 C9A9   C9        ret          

Label90:
 C9AA   210000    ld   hl, 0000h
 C9AD   7D        ld   a, l    
 C9AE   32518A    ld   (08A51h), a  
 C9B1   210400    ld   hl, 0004h
 C9B4   E5        push hl      
 C9B5   210500    ld   hl, 0005h
 C9B8   E5        push hl      
 C9B9   214C00    ld   hl, 004Ch
 C9BC   E5        push hl      
 C9BD   213700    ld   hl, 0037h
 C9C0   CD74E0    call Label208
 C9C3   210400    ld   hl, 0004h
 C9C6   E5        push hl      
 C9C7   210500    ld   hl, 0005h
 C9CA   E5        push hl      
 C9CB   214C00    ld   hl, 004Ch
 C9CE   E5        push hl      
 C9CF   213700    ld   hl, 0037h
 C9D2   DD217298  ld   ix, appBackUpScreen
 C9D6   CD78E0    call Label360
 C9D9   210900    ld   hl, 0009h
 C9DC   E5        push hl      
 C9DD   210A00    ld   hl, 000Ah
 C9E0   E5        push hl      
 C9E1   214200    ld   hl, 0042h
 C9E4   E5        push hl      
 C9E5   212D00    ld   hl, 002Dh
 C9E8   CDE6E0    call Label361
 C9EB   210900    ld   hl, 0009h
 C9EE   E5        push hl      
 C9EF   210A00    ld   hl, 000Ah
 C9F2   E5        push hl      
 C9F3   214200    ld   hl, 0042h
 C9F6   E5        push hl      
 C9F7   212D00    ld   hl, 002Dh
 C9FA   DD217298  ld   ix, appBackUpScreen
 C9FE   CD78E0    call Label360
 CA01   210B00    ld   hl, 000Bh
 CA04   22E489    ld   (089E4h), hl 
 CA07   210B00    ld   hl, 000Bh
 CA0A   E5        push hl      
 CA0B   2AE489    ld   hl, (089E4h) 
 CA0E   E5        push hl      
 CA0F   213E00    ld   hl, 003Eh
 CA12   E5        push hl      
 CA13   210700    ld   hl, 0007h
 CA16   DD217298  ld   ix, appBackUpScreen
 CA1A   CDEAE0    call Label362
 CA1D   CD50CC    call Label363
 CA20   CDE7DF    call Label209

Label379:
 CA23   2A518A    ld   hl, (08A51h) 
 CA26   2600      ld   h, 00h
 CA28   7C        ld   a, h    
 CA29   2D        dec  l       
 CA2A   B5        or   l       
 CA2B   2803      jr   z, Label364
 CA2D   210100    ld   hl, 0001h

Label364:
 CA30   E5        push hl      
 CA31   2A518A    ld   hl, (08A51h) 
 CA34   2600      ld   h, 00h
 CA36   7C        ld   a, h    
 CA37   2D        dec  l       
 CA38   2D        dec  l       
 CA39   B5        or   l       
 CA3A   2803      jr   z, Label365
 CA3C   210100    ld   hl, 0001h

Label365:
 CA3F   D1        pop  de      
 CA40   7D        ld   a, l    
 CA41   A3        and  e       
 CA42   6F        ld   l, a    
 CA43   B4        or   h       
 CA44   CA4FCC    jp   z, Label366
 CA47   210000    ld   hl, 0000h
 CA4A   7D        ld   a, l    
 CA4B   323F8A    ld   (08A3Fh), a  
 CA4E   CD50CC    call Label363

Label369:
 CA51   2A3F8A    ld   hl, (08A3Fh) 
 CA54   2600      ld   h, 00h
 CA56   7D        ld   a, l    
 CA57   D635      sub  35h
 CA59   B4        or   h       
 CA5A   C6FF      add  a, 0FFh
 CA5C   ED62      sbc  hl, hl  
 CA5E   23        inc  hl      
 CA5F   E5        push hl      
 CA60   2A3F8A    ld   hl, (08A3Fh) 
 CA63   2600      ld   h, 00h
 CA65   7D        ld   a, l    
 CA66   3D        dec  a       
 CA67   B4        or   h       
 CA68   2802      jr   z, Label367
 CA6A   ED62      sbc  hl, hl  

Label367:
 CA6C   D1        pop  de      
 CA6D   7D        ld   a, l    
 CA6E   B3        or   e       
 CA6F   6F        ld   l, a    
 CA70   E5        push hl      
 CA71   2A3F8A    ld   hl, (08A3Fh) 
 CA74   2600      ld   h, 00h
 CA76   7D        ld   a, l    
 CA77   D604      sub  04h
 CA79   B4        or   h       
 CA7A   C6FF      add  a, 0FFh
 CA7C   ED62      sbc  hl, hl  
 CA7E   23        inc  hl      
 CA7F   D1        pop  de      
 CA80   7D        ld   a, l    
 CA81   B3        or   e       
 CA82   6F        ld   l, a    
 CA83   E5        push hl      
 CA84   2A3F8A    ld   hl, (08A3Fh) 
 CA87   2600      ld   h, 00h
 CA89   7D        ld   a, l    
 CA8A   D636      sub  36h
 CA8C   B4        or   h       
 CA8D   C6FF      add  a, 0FFh
 CA8F   ED62      sbc  hl, hl  
 CA91   23        inc  hl      
 CA92   D1        pop  de      
 CA93   7D        ld   a, l    
 CA94   B3        or   e       
 CA95   6F        ld   l, a    
 CA96   B4        or   h       
 CA97   C2A9CA    jp   nz, Label368
 CA9A   EF1840    bcall(_GetCSC)     
 CA9D   2600      ld   h, 00h
 CA9F   6F        ld   l, a    
 CAA0   7D        ld   a, l    
 CAA1   323F8A    ld   (08A3Fh), a  
 CAA4   CD94DF    call Label85
 CAA7   18A8      jr   Label369

Label368:
 CAA9   2A3F8A    ld   hl, (08A3Fh) 
 CAAC   2600      ld   h, 00h
 CAAE   7D        ld   a, l    
 CAAF   D636      sub  36h
 CAB1   B4        or   h       
 CAB2   C6FF      add  a, 0FFh
 CAB4   ED62      sbc  hl, hl  
 CAB6   23        inc  hl      
 CAB7   7C        ld   a, h    
 CAB8   B5        or   l       
 CAB9   CAD1CA    jp   z, Label370
 CABC   2AE489    ld   hl, (089E4h) 
 CABF   2B        dec  hl      
 CAC0   2B        dec  hl      
 CAC1   110900    ld   de, 0009h
 CAC4   CD43DE    call Label171
 CAC7   111100    ld   de, 0011h
 CACA   19        add  hl, de  
 CACB   22EA89    ld   (089EAh), hl 
 CACE   CD43CE    call Label371

Label370:
 CAD1   2A3F8A    ld   hl, (08A3Fh) 
 CAD4   2600      ld   h, 00h
 CAD6   7D        ld   a, l    
 CAD7   3D        dec  a       
 CAD8   B4        or   h       
 CAD9   2802      jr   z, Label372
 CADB   ED62      sbc  hl, hl  

Label372:
 CADD   E5        push hl      
 CADE   2AE489    ld   hl, (089E4h) 
 CAE1   11D9FF    ld   de, 0FFD9h
 CAE4   19        add  hl, de  
 CAE5   ED62      sbc  hl, hl  
 CAE7   23        inc  hl      
 CAE8   D1        pop  de      
 CAE9   7D        ld   a, l    
 CAEA   A3        and  e       
 CAEB   6F        ld   l, a    
 CAEC   CA29CB    jp   z, Label373
 CAEF   210B00    ld   hl, 000Bh
 CAF2   E5        push hl      
 CAF3   2AE489    ld   hl, (089E4h) 
 CAF6   E5        push hl      
 CAF7   213E00    ld   hl, 003Eh
 CAFA   E5        push hl      
 CAFB   210700    ld   hl, 0007h
 CAFE   DD217298  ld   ix, appBackUpScreen
 CB02   CDEAE0    call Label362
 CB05   210900    ld   hl, 0009h
 CB08   ED5BE489  ld   de, (089E4h) 
 CB0C   19        add  hl, de  
 CB0D   22E489    ld   (089E4h), hl 
 CB10   210B00    ld   hl, 000Bh
 CB13   E5        push hl      
 CB14   2AE489    ld   hl, (089E4h) 
 CB17   E5        push hl      
 CB18   213E00    ld   hl, 003Eh
 CB1B   E5        push hl      
 CB1C   210700    ld   hl, 0007h
 CB1F   DD217298  ld   ix, appBackUpScreen
 CB23   CDEAE0    call Label362
 CB26   C32BCC    jp   Label374

Label373:
 CB29   2A3F8A    ld   hl, (08A3Fh) 
 CB2C   2600      ld   h, 00h
 CB2E   7D        ld   a, l    
 CB2F   3D        dec  a       
 CB30   B4        or   h       
 CB31   2802      jr   z, Label375
 CB33   ED62      sbc  hl, hl  

Label375:
 CB35   E5        push hl      
 CB36   2AE489    ld   hl, (089E4h) 
 CB39   AF        xor  a       
 CB3A   11D9FF    ld   de, 0FFD9h
 CB3D   19        add  hl, de  
 CB3E   67        ld   h, a    
 CB3F   17        rla          
 CB40   6F        ld   l, a    
 CB41   D1        pop  de      
 CB42   7D        ld   a, l    
 CB43   A3        and  e       
 CB44   6F        ld   l, a    
 CB45   B4        or   h       
 CB46   CA7ECB    jp   z, Label376
 CB49   210B00    ld   hl, 000Bh
 CB4C   E5        push hl      
 CB4D   2AE489    ld   hl, (089E4h) 
 CB50   E5        push hl      
 CB51   213E00    ld   hl, 003Eh
 CB54   E5        push hl      
 CB55   210700    ld   hl, 0007h
 CB58   DD217298  ld   ix, appBackUpScreen
 CB5C   CDEAE0    call Label362
 CB5F   210B00    ld   hl, 000Bh
 CB62   22E489    ld   (089E4h), hl 
 CB65   210B00    ld   hl, 000Bh
 CB68   E5        push hl      
 CB69   2AE489    ld   hl, (089E4h) 
 CB6C   E5        push hl      
 CB6D   213E00    ld   hl, 003Eh
 CB70   E5        push hl      
 CB71   210700    ld   hl, 0007h
 CB74   DD217298  ld   ix, appBackUpScreen
 CB78   CDEAE0    call Label362
 CB7B   C32BCC    jp   Label374

Label376:
 CB7E   2A3F8A    ld   hl, (08A3Fh) 
 CB81   2600      ld   h, 00h
 CB83   7D        ld   a, l    
 CB84   D604      sub  04h
 CB86   B4        or   h       
 CB87   C6FF      add  a, 0FFh
 CB89   ED62      sbc  hl, hl  
 CB8B   23        inc  hl      
 CB8C   E5        push hl      
 CB8D   2AE489    ld   hl, (089E4h) 
 CB90   AF        xor  a       
 CB91   11ECFF    ld   de, 0FFECh
 CB94   19        add  hl, de  
 CB95   67        ld   h, a    
 CB96   17        rla          
 CB97   6F        ld   l, a    
 CB98   D1        pop  de      
 CB99   7D        ld   a, l    
 CB9A   A3        and  e       
 CB9B   6F        ld   l, a    
 CB9C   B4        or   h       
 CB9D   CAD9CB    jp   z, Label377
 CBA0   210B00    ld   hl, 000Bh
 CBA3   E5        push hl      
 CBA4   2AE489    ld   hl, (089E4h) 
 CBA7   E5        push hl      
 CBA8   213E00    ld   hl, 003Eh
 CBAB   E5        push hl      
 CBAC   210700    ld   hl, 0007h
 CBAF   DD217298  ld   ix, appBackUpScreen
 CBB3   CDEAE0    call Label362
 CBB6   2AE489    ld   hl, (089E4h) 
 CBB9   11F7FF    ld   de, 0FFF7h
 CBBC   19        add  hl, de  
 CBBD   22E489    ld   (089E4h), hl 
 CBC0   210B00    ld   hl, 000Bh
 CBC3   E5        push hl      
 CBC4   2AE489    ld   hl, (089E4h) 
 CBC7   E5        push hl      
 CBC8   213E00    ld   hl, 003Eh
 CBCB   E5        push hl      
 CBCC   210700    ld   hl, 0007h
 CBCF   DD217298  ld   ix, appBackUpScreen
 CBD3   CDEAE0    call Label362
 CBD6   C32BCC    jp   Label374

Label377:
 CBD9   2A3F8A    ld   hl, (08A3Fh) 
 CBDC   2600      ld   h, 00h
 CBDE   7D        ld   a, l    
 CBDF   D604      sub  04h
 CBE1   B4        or   h       
 CBE2   C6FF      add  a, 0FFh
 CBE4   ED62      sbc  hl, hl  
 CBE6   23        inc  hl      
 CBE7   E5        push hl      
 CBE8   2AE489    ld   hl, (089E4h) 
 CBEB   11ECFF    ld   de, 0FFECh
 CBEE   19        add  hl, de  
 CBEF   ED62      sbc  hl, hl  
 CBF1   23        inc  hl      
 CBF2   D1        pop  de      
 CBF3   7D        ld   a, l    
 CBF4   A3        and  e       
 CBF5   6F        ld   l, a    
 CBF6   CA2BCC    jp   z, Label374
 CBF9   210B00    ld   hl, 000Bh
 CBFC   E5        push hl      
 CBFD   2AE489    ld   hl, (089E4h) 
 CC00   E5        push hl      
 CC01   213E00    ld   hl, 003Eh
 CC04   E5        push hl      
 CC05   210700    ld   hl, 0007h
 CC08   DD217298  ld   ix, appBackUpScreen
 CC0C   CDEAE0    call Label362
 CC0F   212F00    ld   hl, 002Fh
 CC12   22E489    ld   (089E4h), hl 
 CC15   210B00    ld   hl, 000Bh
 CC18   E5        push hl      
 CC19   2AE489    ld   hl, (089E4h) 
 CC1C   E5        push hl      
 CC1D   213E00    ld   hl, 003Eh
 CC20   E5        push hl      
 CC21   210700    ld   hl, 0007h
 CC24   DD217298  ld   ix, appBackUpScreen
 CC28   CDEAE0    call Label362

Label374:
 CC2B   2A3F8A    ld   hl, (08A3Fh) 
 CC2E   2600      ld   h, 00h
 CC30   7D        ld   a, l    
 CC31   D635      sub  35h
 CC33   B4        or   h       
 CC34   C6FF      add  a, 0FFh
 CC36   ED62      sbc  hl, hl  
 CC38   23        inc  hl      
 CC39   7C        ld   a, h    
 CC3A   B5        or   l       
 CC3B   CA4CCC    jp   z, Label378
 CC3E   210000    ld   hl, 0000h
 CC41   7D        ld   a, l    
 CC42   323F8A    ld   (08A3Fh), a  
 CC45   210100    ld   hl, 0001h
 CC48   7D        ld   a, l    
 CC49   32518A    ld   (08A51h), a  

Label378:
 CC4C   C323CA    jp   Label379

Label366:
 CC4F   C9        ret          

Label363:
 CC50   211200    ld   hl, 0012h
 CC53   1804      jr   Label380

Label391:
 CC55   2AE889    ld   hl, (089E8h) 
 CC58   23        inc  hl      

Label380:
 CC59   22E889    ld   (089E8h), hl 
 CC5C   EB        ex   de, hl  
 CC5D   211600    ld   hl, 0016h
 CC60   B7        or   a       
 CC61   ED52      sbc  hl, de  
 CC63   DA42CE    jp   c, Label381
 CC66   2AE889    ld   hl, (089E8h) 
 CC69   11EFFF    ld   de, 0FFEFh
 CC6C   19        add  hl, de  
 CC6D   54        ld   d, h    
 CC6E   5D        ld   e, l    
 CC6F   29        add  hl, hl  
 CC70   29        add  hl, hl  
 CC71   29        add  hl, hl  
 CC72   19        add  hl, de  
 CC73   23        inc  hl      
 CC74   23        inc  hl      
 CC75   22B689    ld   (089B6h), hl 
 CC78   2AE889    ld   hl, (089E8h) 
 CC7B   113A8A    ld   de, statVars
 CC7E   19        add  hl, de  
 CC7F   6E        ld   l, (hl) 
 CC80   2600      ld   h, 00h
 CC82   AF        xor  a       
 CC83   11FDFF    ld   de, 0FFFDh
 CC86   19        add  hl, de  
 CC87   67        ld   h, a    
 CC88   17        rla          
 CC89   6F        ld   l, a    
 CC8A   B4        or   h       
 CC8B   CAD4CC    jp   z, Label382
 CC8E   211200    ld   hl, 0012h
 CC91   E5        push hl      
 CC92   2AB689    ld   hl, (089B6h) 
 CC95   E5        push hl      
 CC96   2AE889    ld   hl, (089E8h) 
 CC99   113A8A    ld   de, statVars
 CC9C   19        add  hl, de  
 CC9D   6E        ld   l, (hl) 
 CC9E   2600      ld   h, 00h
 CCA0   110700    ld   de, 0007h
 CCA3   19        add  hl, de  
 CCA4   29        add  hl, hl  
 CCA5   29        add  hl, hl  
 CCA6   29        add  hl, hl  
 CCA7   11B2E1    ld   de, Str72
 CCAA   19        add  hl, de  
 CCAB   CD02DF    call Label198
 CCAE   211200    ld   hl, 0012h
 CCB1   E5        push hl      
 CCB2   2AB689    ld   hl, (089B6h) 
 CCB5   E5        push hl      
 CCB6   2AE889    ld   hl, (089E8h) 
 CCB9   113A8A    ld   de, statVars
 CCBC   19        add  hl, de  
 CCBD   6E        ld   l, (hl) 
 CCBE   2600      ld   h, 00h
 CCC0   110F00    ld   de, 000Fh
 CCC3   19        add  hl, de  
 CCC4   29        add  hl, hl  
 CCC5   29        add  hl, hl  
 CCC6   29        add  hl, hl  
 CCC7   11B2E1    ld   de, Str72
 CCCA   19        add  hl, de  
 CCCB   E5        push hl      
 CCCC   DDE1      pop  ix      
 CCCE   216798    ld   hl, flashByte1
 CCD1   CD08DF    call Label188

Label382:
 CCD4   2AE889    ld   hl, (089E8h) 
 CCD7   113A8A    ld   de, statVars
 CCDA   19        add  hl, de  
 CCDB   6E        ld   l, (hl) 
 CCDC   2600      ld   h, 00h
 CCDE   11FDFF    ld   de, 0FFFDh
 CCE1   19        add  hl, de  
 CCE2   ED62      sbc  hl, hl  
 CCE4   23        inc  hl      
 CCE5   7C        ld   a, h    
 CCE6   B5        or   l       
 CCE7   CA00CD    jp   z, Label383
 CCEA   211D00    ld   hl, 001Dh
 CCED   22D786    ld   (penCol), hl 
 CCF0   2AB689    ld   hl, (089B6h) 
 CCF3   7D        ld   a, l    
 CCF4   32D886    ld   (penRow), a  
 CCF7   21ABED    ld   hl, Str99
 CCFA   EF6145    bcall(_VPutS)     
 CCFD   C33FCE    jp   Label384

Label383:
 CD00   2AE889    ld   hl, (089E8h) 
 CD03   113A8A    ld   de, statVars
 CD06   19        add  hl, de  
 CD07   6E        ld   l, (hl) 
 CD08   2600      ld   h, 00h
 CD0A   7D        ld   a, l    
 CD0B   D603      sub  03h
 CD0D   B4        or   h       
 CD0E   C6FF      add  a, 0FFh
 CD10   ED62      sbc  hl, hl  
 CD12   23        inc  hl      
 CD13   7C        ld   a, h    
 CD14   B5        or   l       
 CD15   CA2ECD    jp   z, Label385
 CD18   211D00    ld   hl, 001Dh
 CD1B   22D786    ld   (penCol), hl 
 CD1E   2AB689    ld   hl, (089B6h) 
 CD21   7D        ld   a, l    
 CD22   32D886    ld   (penRow), a  
 CD25   21B4ED    ld   hl, Str100
 CD28   EF6145    bcall(_VPutS)     
 CD2B   C33FCE    jp   Label384

Label385:
 CD2E   2AE889    ld   hl, (089E8h) 
 CD31   113A8A    ld   de, statVars
 CD34   19        add  hl, de  
 CD35   6E        ld   l, (hl) 
 CD36   2600      ld   h, 00h
 CD38   7D        ld   a, l    
 CD39   D604      sub  04h
 CD3B   B4        or   h       
 CD3C   C6FF      add  a, 0FFh
 CD3E   ED62      sbc  hl, hl  
 CD40   23        inc  hl      
 CD41   7C        ld   a, h    
 CD42   B5        or   l       
 CD43   CA5CCD    jp   z, Label386
 CD46   211D00    ld   hl, 001Dh
 CD49   22D786    ld   (penCol), hl 
 CD4C   2AB689    ld   hl, (089B6h) 
 CD4F   7D        ld   a, l    
 CD50   32D886    ld   (penRow), a  
 CD53   21BEED    ld   hl, Str101
 CD56   EF6145    bcall(_VPutS)     
 CD59   C33FCE    jp   Label384

Label386:
 CD5C   2AE889    ld   hl, (089E8h) 
 CD5F   113A8A    ld   de, statVars
 CD62   19        add  hl, de  
 CD63   6E        ld   l, (hl) 
 CD64   2600      ld   h, 00h
 CD66   7D        ld   a, l    
 CD67   D605      sub  05h
 CD69   B4        or   h       
 CD6A   C6FF      add  a, 0FFh
 CD6C   ED62      sbc  hl, hl  
 CD6E   23        inc  hl      
 CD6F   7C        ld   a, h    
 CD70   B5        or   l       
 CD71   CA8ACD    jp   z, Label387
 CD74   211D00    ld   hl, 001Dh
 CD77   22D786    ld   (penCol), hl 
 CD7A   2AB689    ld   hl, (089B6h) 
 CD7D   7D        ld   a, l    
 CD7E   32D886    ld   (penRow), a  
 CD81   21CAED    ld   hl, Str102
 CD84   EF6145    bcall(_VPutS)     
 CD87   C33FCE    jp   Label384

Label387:
 CD8A   2AE889    ld   hl, (089E8h) 
 CD8D   113A8A    ld   de, statVars
 CD90   19        add  hl, de  
 CD91   6E        ld   l, (hl) 
 CD92   2600      ld   h, 00h
 CD94   7D        ld   a, l    
 CD95   D606      sub  06h
 CD97   B4        or   h       
 CD98   C6FF      add  a, 0FFh
 CD9A   ED62      sbc  hl, hl  
 CD9C   23        inc  hl      
 CD9D   7C        ld   a, h    
 CD9E   B5        or   l       
 CD9F   CAB8CD    jp   z, Label388
 CDA2   211D00    ld   hl, 001Dh
 CDA5   22D786    ld   (penCol), hl 
 CDA8   2AB689    ld   hl, (089B6h) 
 CDAB   7D        ld   a, l    
 CDAC   32D886    ld   (penRow), a  
 CDAF   21D9ED    ld   hl, Str103
 CDB2   EF6145    bcall(_VPutS)     
 CDB5   C33FCE    jp   Label384

Label388:
 CDB8   2AE889    ld   hl, (089E8h) 
 CDBB   113A8A    ld   de, statVars
 CDBE   19        add  hl, de  
 CDBF   6E        ld   l, (hl) 
 CDC0   2600      ld   h, 00h
 CDC2   7D        ld   a, l    
 CDC3   D607      sub  07h
 CDC5   B4        or   h       
 CDC6   C6FF      add  a, 0FFh
 CDC8   ED62      sbc  hl, hl  
 CDCA   23        inc  hl      
 CDCB   7C        ld   a, h    
 CDCC   B5        or   l       
 CDCD   CAE6CD    jp   z, Label389
 CDD0   211D00    ld   hl, 001Dh
 CDD3   22D786    ld   (penCol), hl 
 CDD6   2AB689    ld   hl, (089B6h) 
 CDD9   7D        ld   a, l    
 CDDA   32D886    ld   (penRow), a  
 CDDD   21E5ED    ld   hl, Str104
 CDE0   EF6145    bcall(_VPutS)     
 CDE3   C33FCE    jp   Label384

Label389:
 CDE6   2AE889    ld   hl, (089E8h) 
 CDE9   113A8A    ld   de, statVars
 CDEC   19        add  hl, de  
 CDED   6E        ld   l, (hl) 
 CDEE   2600      ld   h, 00h
 CDF0   7D        ld   a, l    
 CDF1   D608      sub  08h
 CDF3   B4        or   h       
 CDF4   C6FF      add  a, 0FFh
 CDF6   ED62      sbc  hl, hl  
 CDF8   23        inc  hl      
 CDF9   7C        ld   a, h    
 CDFA   B5        or   l       
 CDFB   CA14CE    jp   z, Label390
 CDFE   211D00    ld   hl, 001Dh
 CE01   22D786    ld   (penCol), hl 
 CE04   2AB689    ld   hl, (089B6h) 
 CE07   7D        ld   a, l    
 CE08   32D886    ld   (penRow), a  
 CE0B   21F3ED    ld   hl, Str105
 CE0E   EF6145    bcall(_VPutS)     
 CE11   C33FCE    jp   Label384

Label390:
 CE14   2AE889    ld   hl, (089E8h) 
 CE17   113A8A    ld   de, statVars
 CE1A   19        add  hl, de  
 CE1B   6E        ld   l, (hl) 
 CE1C   2600      ld   h, 00h
 CE1E   7D        ld   a, l    
 CE1F   D609      sub  09h
 CE21   B4        or   h       
 CE22   C6FF      add  a, 0FFh
 CE24   ED62      sbc  hl, hl  
 CE26   23        inc  hl      
 CE27   7C        ld   a, h    
 CE28   B5        or   l       
 CE29   CA3FCE    jp   z, Label384
 CE2C   211D00    ld   hl, 001Dh
 CE2F   22D786    ld   (penCol), hl 
 CE32   2AB689    ld   hl, (089B6h) 
 CE35   7D        ld   a, l    
 CE36   32D886    ld   (penRow), a  
 CE39   21FCED    ld   hl, Str106
 CE3C   EF6145    bcall(_VPutS)     

Label384:
 CE3F   C355CC    jp   Label391

Label381:
 CE42   C9        ret          

Label371:
 CE43   2AEA89    ld   hl, (089EAh) 
 CE46   113A8A    ld   de, statVars
 CE49   19        add  hl, de  
 CE4A   6E        ld   l, (hl) 
 CE4B   2600      ld   h, 00h
 CE4D   7D        ld   a, l    
 CE4E   D603      sub  03h
 CE50   B4        or   h       
 CE51   C6FF      add  a, 0FFh
 CE53   ED62      sbc  hl, hl  
 CE55   23        inc  hl      
 CE56   7C        ld   a, h    
 CE57   B5        or   l       
 CE58   CA75CE    jp   z, Label392
 CE5B   CDBCC5    call Label393
 CE5E   210000    ld   hl, 0000h
 CE61   E5        push hl      
 CE62   2AEA89    ld   hl, (089EAh) 
 CE65   113A8A    ld   de, statVars
 CE68   19        add  hl, de  
 CE69   D1        pop  de      
 CE6A   73        ld   (hl), e 
 CE6B   210200    ld   hl, 0002h
 CE6E   7D        ld   a, l    
 CE6F   32518A    ld   (08A51h), a  
 CE72   C3A8CF    jp   Label394

Label392:
 CE75   2AEA89    ld   hl, (089EAh) 
 CE78   113A8A    ld   de, statVars
 CE7B   19        add  hl, de  
 CE7C   6E        ld   l, (hl) 
 CE7D   2600      ld   h, 00h
 CE7F   7D        ld   a, l    
 CE80   D604      sub  04h
 CE82   B4        or   h       
 CE83   C6FF      add  a, 0FFh
 CE85   ED62      sbc  hl, hl  
 CE87   23        inc  hl      
 CE88   7C        ld   a, h    
 CE89   B5        or   l       
 CE8A   CAAACE    jp   z, Label395
 CE8D   CD20B2    call Label30
 CE90   CDA9CF    call Label48
 CE93   210000    ld   hl, 0000h
 CE96   E5        push hl      
 CE97   2AEA89    ld   hl, (089EAh) 
 CE9A   113A8A    ld   de, statVars
 CE9D   19        add  hl, de  
 CE9E   D1        pop  de      
 CE9F   73        ld   (hl), e 
 CEA0   210200    ld   hl, 0002h
 CEA3   7D        ld   a, l    
 CEA4   32518A    ld   (08A51h), a  
 CEA7   C3A8CF    jp   Label394

Label395:
 CEAA   2AEA89    ld   hl, (089EAh) 
 CEAD   113A8A    ld   de, statVars
 CEB0   19        add  hl, de  
 CEB1   6E        ld   l, (hl) 
 CEB2   2600      ld   h, 00h
 CEB4   7D        ld   a, l    
 CEB5   D605      sub  05h
 CEB7   B4        or   h       
 CEB8   C6FF      add  a, 0FFh
 CEBA   ED62      sbc  hl, hl  
 CEBC   23        inc  hl      
 CEBD   7C        ld   a, h    
 CEBE   B5        or   l       
 CEBF   CAE3CE    jp   z, Label396
 CEC2   210000    ld   hl, 0000h
 CEC5   E5        push hl      
 CEC6   2AEA89    ld   hl, (089EAh) 
 CEC9   113A8A    ld   de, statVars
 CECC   19        add  hl, de  
 CECD   D1        pop  de      
 CECE   73        ld   (hl), e 
 CECF   21E200    ld   hl, 00E2h
 CED2   7D        ld   a, l    
 CED3   323C8A    ld   (timer2), a  
 CED6   CD57C6    call Label271
 CED9   210200    ld   hl, 0002h
 CEDC   7D        ld   a, l    
 CEDD   32518A    ld   (08A51h), a  
 CEE0   C3A8CF    jp   Label394

Label396:
 CEE3   2AEA89    ld   hl, (089EAh) 
 CEE6   113A8A    ld   de, statVars
 CEE9   19        add  hl, de  
 CEEA   6E        ld   l, (hl) 
 CEEB   2600      ld   h, 00h
 CEED   7D        ld   a, l    
 CEEE   D606      sub  06h
 CEF0   B4        or   h       
 CEF1   C6FF      add  a, 0FFh
 CEF3   ED62      sbc  hl, hl  
 CEF5   23        inc  hl      
 CEF6   7C        ld   a, h    
 CEF7   B5        or   l       
 CEF8   CA15CF    jp   z, Label397
 CEFB   210000    ld   hl, 0000h
 CEFE   E5        push hl      
 CEFF   2AEA89    ld   hl, (089EAh) 
 CF02   113A8A    ld   de, statVars
 CF05   19        add  hl, de  
 CF06   D1        pop  de      
 CF07   73        ld   (hl), e 
 CF08   210200    ld   hl, 0002h
 CF0B   7D        ld   a, l    
 CF0C   32518A    ld   (08A51h), a  
 CF0F   CDCFD0    call Label398
 CF12   C3A8CF    jp   Label394

Label397:
 CF15   2AEA89    ld   hl, (089EAh) 
 CF18   113A8A    ld   de, statVars
 CF1B   19        add  hl, de  
 CF1C   6E        ld   l, (hl) 
 CF1D   2600      ld   h, 00h
 CF1F   7D        ld   a, l    
 CF20   D607      sub  07h
 CF22   B4        or   h       
 CF23   C6FF      add  a, 0FFh
 CF25   ED62      sbc  hl, hl  
 CF27   23        inc  hl      
 CF28   7C        ld   a, h    
 CF29   B5        or   l       
 CF2A   CA47CF    jp   z, Label399
 CF2D   210000    ld   hl, 0000h
 CF30   E5        push hl      
 CF31   2AEA89    ld   hl, (089EAh) 
 CF34   113A8A    ld   de, statVars
 CF37   19        add  hl, de  
 CF38   D1        pop  de      
 CF39   73        ld   (hl), e 
 CF3A   210200    ld   hl, 0002h
 CF3D   7D        ld   a, l    
 CF3E   32518A    ld   (08A51h), a  
 CF41   CD02D1    call Label400
 CF44   C3A8CF    jp   Label394

Label399:
 CF47   2AEA89    ld   hl, (089EAh) 
 CF4A   113A8A    ld   de, statVars
 CF4D   19        add  hl, de  
 CF4E   6E        ld   l, (hl) 
 CF4F   2600      ld   h, 00h
 CF51   7D        ld   a, l    
 CF52   D608      sub  08h
 CF54   B4        or   h       
 CF55   C6FF      add  a, 0FFh
 CF57   ED62      sbc  hl, hl  
 CF59   23        inc  hl      
 CF5A   7C        ld   a, h    
 CF5B   B5        or   l       
 CF5C   CA79CF    jp   z, Label401
 CF5F   210000    ld   hl, 0000h
 CF62   E5        push hl      
 CF63   2AEA89    ld   hl, (089EAh) 
 CF66   113A8A    ld   de, statVars
 CF69   19        add  hl, de  
 CF6A   D1        pop  de      
 CF6B   73        ld   (hl), e 
 CF6C   210200    ld   hl, 0002h
 CF6F   7D        ld   a, l    
 CF70   32518A    ld   (08A51h), a  
 CF73   CD5DD2    call Label402
 CF76   C3A8CF    jp   Label394

Label401:
 CF79   2AEA89    ld   hl, (089EAh) 
 CF7C   113A8A    ld   de, statVars
 CF7F   19        add  hl, de  
 CF80   6E        ld   l, (hl) 
 CF81   2600      ld   h, 00h
 CF83   7D        ld   a, l    
 CF84   D609      sub  09h
 CF86   B4        or   h       
 CF87   C6FF      add  a, 0FFh
 CF89   ED62      sbc  hl, hl  
 CF8B   23        inc  hl      
 CF8C   7C        ld   a, h    
 CF8D   B5        or   l       
 CF8E   CAA8CF    jp   z, Label394
 CF91   210000    ld   hl, 0000h
 CF94   E5        push hl      
 CF95   2AEA89    ld   hl, (089EAh) 
 CF98   113A8A    ld   de, statVars
 CF9B   19        add  hl, de  
 CF9C   D1        pop  de      
 CF9D   73        ld   (hl), e 
 CF9E   210200    ld   hl, 0002h
 CFA1   7D        ld   a, l    
 CFA2   32518A    ld   (08A51h), a  
 CFA5   CD1AD3    call Label403

Label394:
 CFA8   C9        ret          

Label48:
 CFA9   2A608A    ld   hl, (08A60h) 
 CFAC   2600      ld   h, 00h
 CFAE   7D        ld   a, l    
 CFAF   D664      sub  64h
 CFB1   B4        or   h       
 CFB2   D601      sub  01h
 CFB4   ED62      sbc  hl, hl  
 CFB6   23        inc  hl      
 CFB7   7C        ld   a, h    
 CFB8   B5        or   l       
 CFB9   CA6DD0    jp   z, Label404
 CFBC   210000    ld   hl, 0000h
 CFBF   1804      jr   Label405

Label411:
 CFC1   2AB689    ld   hl, (089B6h) 
 CFC4   23        inc  hl      

Label405:
 CFC5   22B689    ld   (089B6h), hl 
 CFC8   EB        ex   de, hl  
 CFC9   210700    ld   hl, 0007h
 CFCC   B7        or   a       
 CFCD   ED52      sbc  hl, de  
 CFCF   DA6DD0    jp   c, Label404
 CFD2   210000    ld   hl, 0000h
 CFD5   1804      jr   Label406

Label410:
 CFD7   2AB889    ld   hl, (089B8h) 
 CFDA   23        inc  hl      

Label406:
 CFDB   22B889    ld   (089B8h), hl 
 CFDE   EB        ex   de, hl  
 CFDF   210D00    ld   hl, 000Dh
 CFE2   B7        or   a       
 CFE3   ED52      sbc  hl, de  
 CFE5   DA6AD0    jp   c, Label407
 CFE8   CDF7B4    call Label91
 CFEB   2ABA89    ld   hl, (089BAh) 
 CFEE   11EC86    ld   de, saveSScreen
 CFF1   19        add  hl, de  
 CFF2   6E        ld   l, (hl) 
 CFF3   2600      ld   h, 00h
 CFF5   AF        xor  a       
 CFF6   119CFF    ld   de, 0FF9Ch
 CFF9   19        add  hl, de  
 CFFA   67        ld   h, a    
 CFFB   17        rla          
 CFFC   6F        ld   l, a    
 CFFD   E5        push hl      
 CFFE   2ABA89    ld   hl, (089BAh) 
 D001   11EC86    ld   de, saveSScreen
 D004   19        add  hl, de  
 D005   6E        ld   l, (hl) 
 D006   2600      ld   h, 00h
 D008   AF        xor  a       
 D009   11FEFF    ld   de, 0FFFEh
 D00C   19        add  hl, de  
 D00D   67        ld   h, a    
 D00E   17        rla          
 D00F   6F        ld   l, a    
 D010   E5        push hl      
 D011   2ABA89    ld   hl, (089BAh) 
 D014   11EC86    ld   de, saveSScreen
 D017   19        add  hl, de  
 D018   6E        ld   l, (hl) 
 D019   2600      ld   h, 00h
 D01B   119FFF    ld   de, 0FF9Fh
 D01E   19        add  hl, de  
 D01F   ED62      sbc  hl, hl  
 D021   23        inc  hl      
 D022   D1        pop  de      
 D023   7D        ld   a, l    
 D024   A3        and  e       
 D025   D1        pop  de      
 D026   B3        or   e       
 D027   6F        ld   l, a    
 D028   B4        or   h       
 D029   CA67D0    jp   z, Label408
 D02C   CDACDE    call Label15
 D02F   AF        xor  a       
 D030   67        ld   h, a    
 D031   3C        inc  a       
 D032   A5        and  l       
 D033   6F        ld   l, a    
 D034   23        inc  hl      
 D035   2D        dec  l       
 D036   7D        ld   a, l    
 D037   3D        dec  a       
 D038   B4        or   h       
 D039   2802      jr   z, Label409
 D03B   ED62      sbc  hl, hl  

Label409:
 D03D   7C        ld   a, h    
 D03E   B5        or   l       
 D03F   CA67D0    jp   z, Label408
 D042   2ABA89    ld   hl, (089BAh) 
 D045   11EC86    ld   de, saveSScreen
 D048   19        add  hl, de  
 D049   6E        ld   l, (hl) 
 D04A   2600      ld   h, 00h
 D04C   7D        ld   a, l    
 D04D   D6C7      sub  0C7h
 D04F   B4        or   h       
 D050   D601      sub  01h
 D052   ED62      sbc  hl, hl  
 D054   23        inc  hl      
 D055   7C        ld   a, h    
 D056   B5        or   l       
 D057   CA67D0    jp   z, Label408
 D05A   210000    ld   hl, 0000h
 D05D   E5        push hl      
 D05E   2ABA89    ld   hl, (089BAh) 
 D061   11EC86    ld   de, saveSScreen
 D064   19        add  hl, de  
 D065   D1        pop  de      
 D066   73        ld   (hl), e 

Label408:
 D067   C3D7CF    jp   Label410

Label407:
 D06A   C3C1CF    jp   Label411

Label404:
 D06D   210100    ld   hl, 0001h
 D070   1804      jr   Label412

Label417:
 D072   2AC289    ld   hl, (089C2h) 
 D075   23        inc  hl      

Label412:
 D076   22C289    ld   (089C2h), hl 
 D079   EB        ex   de, hl  
 D07A   213200    ld   hl, 0032h
 D07D   B7        or   a       
 D07E   ED52      sbc  hl, de  
 D080   DAC5D0    jp   c, Label413
 D083   214C93    ld   hl, 0934Ch
 D086   1804      jr   Label414

Label416:
 D088   2AC089    ld   hl, (089C0h) 
 D08B   23        inc  hl      

Label414:
 D08C   22C089    ld   (089C0h), hl 
 D08F   EB        ex   de, hl  
 D090   213F96    ld   hl, 0963Fh
 D093   B7        or   a       
 D094   ED52      sbc  hl, de  
 D096   DAC0D0    jp   c, Label415
 D099   2AC089    ld   hl, (089C0h) 
 D09C   6E        ld   l, (hl) 
 D09D   2600      ld   h, 00h
 D09F   E5        push hl      
 D0A0   CDACDE    call Label15
 D0A3   2600      ld   h, 00h
 D0A5   7D        ld   a, l    
 D0A6   E607      and  07h
 D0A8   6F        ld   l, a    
 D0A9   1105EE    ld   de, Str107
 D0AC   19        add  hl, de  
 D0AD   6E        ld   l, (hl) 
 D0AE   2600      ld   h, 00h
 D0B0   D1        pop  de      
 D0B1   7D        ld   a, l    
 D0B2   A3        and  e       
 D0B3   6F        ld   l, a    
 D0B4   E5        push hl      
 D0B5   2AC089    ld   hl, (089C0h) 
 D0B8   11F4FF    ld   de, 0FFF4h
 D0BB   19        add  hl, de  
 D0BC   D1        pop  de      
 D0BD   73        ld   (hl), e 
 D0BE   18C8      jr   Label416

Label415:
 D0C0   CDBADE    call Label21
 D0C3   18AD      jr   Label417

Label413:
 D0C5   217298    ld   hl, appBackUpScreen
 D0C8   EF7450    bcall(_BufClr)     
 D0CB   EFD04B    bcall(_GrBufClr)     
 D0CE   C9        ret          

Label398:
 D0CF   210100    ld   hl, 0001h
 D0D2   7D        ld   a, l    
 D0D3   32478A    ld   (08A47h), a  
 D0D6   2A3D8A    ld   hl, (timer2max) 
 D0D9   2600      ld   h, 00h
 D0DB   111FFF    ld   de, 0FF1Fh
 D0DE   19        add  hl, de  
 D0DF   ED62      sbc  hl, hl  
 D0E1   23        inc  hl      
 D0E2   7C        ld   a, h    
 D0E3   B5        or   l       
 D0E4   CAFAD0    jp   z, Label418
 D0E7   2A3D8A    ld   hl, (timer2max) 
 D0EA   2600      ld   h, 00h
 D0EC   3A468A    ld   a, (08A46h)  
 D0EF   5F        ld   e, a    
 D0F0   1600      ld   d, 00h
 D0F2   19        add  hl, de  
 D0F3   7D        ld   a, l    
 D0F4   323D8A    ld   (timer2max), a  
 D0F7   C301D1    jp   Label419

Label418:
 D0FA   21FA00    ld   hl, 00FAh
 D0FD   7D        ld   a, l    
 D0FE   323D8A    ld   (timer2max), a  

Label419:
 D101   C9        ret          

Label400:
 D102   CD20B2    call Label30
 D105   210100    ld   hl, 0001h
 D108   1804      jr   Label420

Label423:
 D10A   2ACA89    ld   hl, (089CAh) 
 D10D   23        inc  hl      

Label420:
 D10E   22CA89    ld   (089CAh), hl 
 D111   EB        ex   de, hl  
 D112   213200    ld   hl, 0032h
 D115   B7        or   a       
 D116   ED52      sbc  hl, de  
 D118   DA90D1    jp   c, Label421
 D11B   CDACDE    call Label15
 D11E   110700    ld   de, 0007h
 D121   CD6ADE    call Label16
 D124   23        inc  hl      
 D125   22B689    ld   (089B6h), hl 
 D128   CDACDE    call Label15
 D12B   110D00    ld   de, 000Dh
 D12E   CD6ADE    call Label16
 D131   23        inc  hl      
 D132   22B889    ld   (089B8h), hl 
 D135   CDF7B4    call Label91
 D138   2ABA89    ld   hl, (089BAh) 
 D13B   11EC86    ld   de, saveSScreen
 D13E   19        add  hl, de  
 D13F   6E        ld   l, (hl) 
 D140   AF        xor  a       
 D141   67        ld   h, a    
 D142   B5        or   l       
 D143   C28DD1    jp   nz, Label422
 D146   216300    ld   hl, 0063h
 D149   E5        push hl      
 D14A   2ABA89    ld   hl, (089BAh) 
 D14D   11EC86    ld   de, saveSScreen
 D150   19        add  hl, de  
 D151   D1        pop  de      
 D152   73        ld   (hl), e 
 D153   2AB689    ld   hl, (089B6h) 
 D156   22E489    ld   (089E4h), hl 
 D159   2AB889    ld   hl, (089B8h) 
 D15C   22E689    ld   (089E6h), hl 
 D15F   2A418A    ld   hl, (08A41h) 
 D162   2600      ld   h, 00h
 D164   22B689    ld   (089B6h), hl 
 D167   2A428A    ld   hl, (08A42h) 
 D16A   2600      ld   h, 00h
 D16C   22B889    ld   (089B8h), hl 
 D16F   CDF7B4    call Label91
 D172   210000    ld   hl, 0000h
 D175   E5        push hl      
 D176   2ABA89    ld   hl, (089BAh) 
 D179   11EC86    ld   de, saveSScreen
 D17C   19        add  hl, de  
 D17D   D1        pop  de      
 D17E   73        ld   (hl), e 
 D17F   2AE489    ld   hl, (089E4h) 
 D182   7D        ld   a, l    
 D183   32418A    ld   (08A41h), a  
 D186   2AE689    ld   hl, (089E6h) 
 D189   7D        ld   a, l    
 D18A   32428A    ld   (08A42h), a  

Label422:
 D18D   C30AD1    jp   Label423

Label421:
 D190   CDACDE    call Label15
 D193   116100    ld   de, 0061h
 D196   CD6ADE    call Label16
 D199   22E489    ld   (089E4h), hl 
 D19C   CDACDE    call Label15
 D19F   114100    ld   de, 0041h
 D1A2   CD6ADE    call Label16
 D1A5   22E689    ld   (089E6h), hl 
 D1A8   210100    ld   hl, 0001h
 D1AB   1804      jr   Label424

Label433:
 D1AD   2ACA89    ld   hl, (089CAh) 
 D1B0   23        inc  hl      

Label424:
 D1B1   22CA89    ld   (089CAh), hl 
 D1B4   EB        ex   de, hl  
 D1B5   21D430    ld   hl, 030D4h
 D1B8   B7        or   a       
 D1B9   ED52      sbc  hl, de  
 D1BB   DA5CD2    jp   c, Label425
 D1BE   CDACDE    call Label15
 D1C1   110300    ld   de, 0003h
 D1C4   CD6ADE    call Label16
 D1C7   22D089    ld   (089D0h), hl 
 D1CA   7C        ld   a, h    
 D1CB   B5        or   l       
 D1CC   C2E6D1    jp   nz, Label426
 D1CF   2AE489    ld   hl, (089E4h) 
 D1D2   CB3C      srl  h       
 D1D4   CB1D      rr   l       
 D1D6   22E489    ld   (089E4h), hl 
 D1D9   2AE689    ld   hl, (089E6h) 
 D1DC   CB3C      srl  h       
 D1DE   CB1D      rr   l       
 D1E0   22E689    ld   (089E6h), hl 
 D1E3   C33CD2    jp   Label427

Label426:
 D1E6   2AD089    ld   hl, (089D0h) 
 D1E9   7D        ld   a, l    
 D1EA   3D        dec  a       
 D1EB   B4        or   h       
 D1EC   2802      jr   z, Label428
 D1EE   ED62      sbc  hl, hl  

Label428:
 D1F0   7C        ld   a, h    
 D1F1   B5        or   l       
 D1F2   CA14D2    jp   z, Label429
 D1F5   2AE489    ld   hl, (089E4h) 
 D1F8   113000    ld   de, 0030h
 D1FB   19        add  hl, de  
 D1FC   CB3C      srl  h       
 D1FE   CB1D      rr   l       
 D200   22E489    ld   (089E4h), hl 
 D203   2AE689    ld   hl, (089E6h) 
 D206   11BFFF    ld   de, 0FFBFh
 D209   19        add  hl, de  
 D20A   CB3C      srl  h       
 D20C   CB1D      rr   l       
 D20E   22E689    ld   (089E6h), hl 
 D211   C33CD2    jp   Label427

Label429:
 D214   2AD089    ld   hl, (089D0h) 
 D217   2D        dec  l       
 D218   7D        ld   a, l    
 D219   3D        dec  a       
 D21A   B4        or   h       
 D21B   2802      jr   z, Label430
 D21D   ED62      sbc  hl, hl  

Label430:
 D21F   7C        ld   a, h    
 D220   B5        or   l       
 D221   CA3CD2    jp   z, Label427
 D224   2AE489    ld   hl, (089E4h) 
 D227   116100    ld   de, 0061h
 D22A   19        add  hl, de  
 D22B   CB3C      srl  h       
 D22D   CB1D      rr   l       
 D22F   22E489    ld   (089E4h), hl 
 D232   2AE689    ld   hl, (089E6h) 
 D235   CB3C      srl  h       
 D237   CB1D      rr   l       
 D239   22E689    ld   (089E6h), hl 

Label427:
 D23C   2AE489    ld   hl, (089E4h) 
 D23F   E5        push hl      
 D240   2AE689    ld   hl, (089E6h) 
 D243   CD80DE    call Label431
 D246   B6        or   (hl)    
 D247   77        ld   (hl), a 
 D248   2ACA89    ld   hl, (089CAh) 
 D24B   11F401    ld   de, 001F4h
 D24E   CD6ADE    call Label16
 D251   7C        ld   a, h    
 D252   B5        or   l       
 D253   C259D2    jp   nz, Label432
 D256   CDE7DF    call Label209

Label432:
 D259   C3ADD1    jp   Label433

Label425:
 D25C   C9        ret          

Label402:
 D25D   210000    ld   hl, 0000h
 D260   7D        ld   a, l    
 D261   32528A    ld   (08A52h), a  
 D264   CD20B2    call Label30
 D267   210000    ld   hl, 0000h
 D26A   1804      jr   Label434

Label442:
 D26C   2AB689    ld   hl, (089B6h) 
 D26F   23        inc  hl      

Label434:
 D270   22B689    ld   (089B6h), hl 
 D273   EB        ex   de, hl  
 D274   210700    ld   hl, 0007h
 D277   B7        or   a       
 D278   ED52      sbc  hl, de  
 D27A   DA19D3    jp   c, Label435
 D27D   210000    ld   hl, 0000h
 D280   1804      jr   Label436

Label441:
 D282   2AB889    ld   hl, (089B8h) 
 D285   23        inc  hl      

Label436:
 D286   22B889    ld   (089B8h), hl 
 D289   EB        ex   de, hl  
 D28A   210D00    ld   hl, 000Dh
 D28D   B7        or   a       
 D28E   ED52      sbc  hl, de  
 D290   DA16D3    jp   c, Label437
 D293   CDF7B4    call Label91
 D296   2ABA89    ld   hl, (089BAh) 
 D299   11EC86    ld   de, saveSScreen
 D29C   19        add  hl, de  
 D29D   6E        ld   l, (hl) 
 D29E   2600      ld   h, 00h
 D2A0   7D        ld   a, l    
 D2A1   D66D      sub  6Dh
 D2A3   B4        or   h       
 D2A4   C6FF      add  a, 0FFh
 D2A6   ED62      sbc  hl, hl  
 D2A8   23        inc  hl      
 D2A9   7C        ld   a, h    
 D2AA   B5        or   l       
 D2AB   CA13D3    jp   z, Label438
 D2AE   210000    ld   hl, 0000h
 D2B1   E5        push hl      
 D2B2   2ABA89    ld   hl, (089BAh) 
 D2B5   11EC86    ld   de, saveSScreen
 D2B8   19        add  hl, de  
 D2B9   D1        pop  de      
 D2BA   73        ld   (hl), e 
 D2BB   212800    ld   hl, 0028h
 D2BE   1804      jr   Label439

Label440:
 D2C0   2AD289    ld   hl, (089D2h) 
 D2C3   23        inc  hl      

Label439:
 D2C4   22D289    ld   (089D2h), hl 
 D2C7   EB        ex   de, hl  
 D2C8   213300    ld   hl, 0033h
 D2CB   B7        or   a       
 D2CC   ED52      sbc  hl, de  
 D2CE   DA13D3    jp   c, Label438
 D2D1   2AB889    ld   hl, (089B8h) 
 D2D4   54        ld   d, h    
 D2D5   5D        ld   e, l    
 D2D6   29        add  hl, hl  
 D2D7   19        add  hl, de  
 D2D8   29        add  hl, hl  
 D2D9   E5        push hl      
 D2DA   2AB689    ld   hl, (089B6h) 
 D2DD   23        inc  hl      
 D2DE   54        ld   d, h    
 D2DF   5D        ld   e, l    
 D2E0   29        add  hl, hl  
 D2E1   19        add  hl, de  
 D2E2   29        add  hl, hl  
 D2E3   19        add  hl, de  
 D2E4   E5        push hl      
 D2E5   214AE3    ld   hl, Str108
 D2E8   CD02DF    call Label198
 D2EB   2AB889    ld   hl, (089B8h) 
 D2EE   54        ld   d, h    
 D2EF   5D        ld   e, l    
 D2F0   29        add  hl, hl  
 D2F1   19        add  hl, de  
 D2F2   29        add  hl, hl  
 D2F3   E5        push hl      
 D2F4   2AB689    ld   hl, (089B6h) 
 D2F7   23        inc  hl      
 D2F8   54        ld   d, h    
 D2F9   5D        ld   e, l    
 D2FA   29        add  hl, hl  
 D2FB   19        add  hl, de  
 D2FC   29        add  hl, hl  
 D2FD   19        add  hl, de  
 D2FE   E5        push hl      
 D2FF   2152E3    ld   hl, Str109
 D302   E5        push hl      
 D303   DDE1      pop  ix      
 D305   216798    ld   hl, flashByte1
 D308   CD08DF    call Label188
 D30B   CDBADE    call Label21
 D30E   CD94DF    call Label85
 D311   18AD      jr   Label440

Label438:
 D313   C382D2    jp   Label441

Label437:
 D316   C36CD2    jp   Label442

Label435:
 D319   C9        ret          

Label403:
 D31A   210100    ld   hl, 0001h
 D31D   7D        ld   a, l    
 D31E   32548A    ld   (08A54h), a  
 D321   C9        ret          

Label106:
 D322   210000    ld   hl, 0000h
 D325   7D        ld   a, l    
 D326   32568A    ld   (08A56h), a  
 D329   2A3B8A    ld   hl, (timer1max) 
 D32C   2600      ld   h, 00h
 D32E   7D        ld   a, l    
 D32F   D60B      sub  0Bh
 D331   B4        or   h       
 D332   C6FF      add  a, 0FFh
 D334   ED62      sbc  hl, hl  
 D336   23        inc  hl      
 D337   7C        ld   a, h    
 D338   B5        or   l       
 D339   CABED3    jp   z, Label443
 D33C   210100    ld   hl, 0001h
 D33F   7D        ld   a, l    
 D340   32568A    ld   (08A56h), a  
 D343   EFD04B    bcall(_GrBufClr)     
 D346   210100    ld   hl, 0001h
 D349   22D786    ld   (penCol), hl 
 D34C   210200    ld   hl, 0002h
 D34F   7D        ld   a, l    
 D350   32D886    ld   (penRow), a  
 D353   210DEE    ld   hl, Str110
 D356   EF6145    bcall(_VPutS)     
 D359   210100    ld   hl, 0001h
 D35C   22D786    ld   (penCol), hl 
 D35F   210A00    ld   hl, 000Ah
 D362   7D        ld   a, l    
 D363   32D886    ld   (penRow), a  
 D366   2121EE    ld   hl, Str111
 D369   EF6145    bcall(_VPutS)     
 D36C   210100    ld   hl, 0001h
 D36F   22D786    ld   (penCol), hl 
 D372   211200    ld   hl, 0012h
 D375   7D        ld   a, l    
 D376   32D886    ld   (penRow), a  
 D379   2138EE    ld   hl, Str112
 D37C   EF6145    bcall(_VPutS)     
 D37F   210100    ld   hl, 0001h
 D382   22D786    ld   (penCol), hl 
 D385   211A00    ld   hl, 001Ah
 D388   7D        ld   a, l    
 D389   32D886    ld   (penRow), a  
 D38C   214FEE    ld   hl, Str113
 D38F   EF6145    bcall(_VPutS)     
 D392   210100    ld   hl, 0001h
 D395   22D786    ld   (penCol), hl 
 D398   212200    ld   hl, 0022h
 D39B   7D        ld   a, l    
 D39C   32D886    ld   (penRow), a  
 D39F   2166EE    ld   hl, Str114
 D3A2   EF6145    bcall(_VPutS)     
 D3A5   210100    ld   hl, 0001h
 D3A8   22D786    ld   (penCol), hl 
 D3AB   213200    ld   hl, 0032h
 D3AE   7D        ld   a, l    
 D3AF   32D886    ld   (penRow), a  
 D3B2   21E8E6    ld   hl, Str11
 D3B5   EF6145    bcall(_VPutS)     
 D3B8   CDBADE    call Label21
 D3BB   C37AD5    jp   Label444

Label443:
 D3BE   2A3B8A    ld   hl, (timer1max) 
 D3C1   2600      ld   h, 00h
 D3C3   7D        ld   a, l    
 D3C4   D615      sub  15h
 D3C6   B4        or   h       
 D3C7   C6FF      add  a, 0FFh
 D3C9   ED62      sbc  hl, hl  
 D3CB   23        inc  hl      
 D3CC   7C        ld   a, h    
 D3CD   B5        or   l       
 D3CE   CA53D4    jp   z, Label445
 D3D1   210100    ld   hl, 0001h
 D3D4   7D        ld   a, l    
 D3D5   32568A    ld   (08A56h), a  
 D3D8   EFD04B    bcall(_GrBufClr)     
 D3DB   210100    ld   hl, 0001h
 D3DE   22D786    ld   (penCol), hl 
 D3E1   210200    ld   hl, 0002h
 D3E4   7D        ld   a, l    
 D3E5   32D886    ld   (penRow), a  
 D3E8   217EEE    ld   hl, Str115
 D3EB   EF6145    bcall(_VPutS)     
 D3EE   210100    ld   hl, 0001h
 D3F1   22D786    ld   (penCol), hl 
 D3F4   210A00    ld   hl, 000Ah
 D3F7   7D        ld   a, l    
 D3F8   32D886    ld   (penRow), a  
 D3FB   2195EE    ld   hl, Str116
 D3FE   EF6145    bcall(_VPutS)     
 D401   210100    ld   hl, 0001h
 D404   22D786    ld   (penCol), hl 
 D407   211200    ld   hl, 0012h
 D40A   7D        ld   a, l    
 D40B   32D886    ld   (penRow), a  
 D40E   21ABEE    ld   hl, Str117
 D411   EF6145    bcall(_VPutS)     
 D414   210100    ld   hl, 0001h
 D417   22D786    ld   (penCol), hl 
 D41A   211A00    ld   hl, 001Ah
 D41D   7D        ld   a, l    
 D41E   32D886    ld   (penRow), a  
 D421   21C6EE    ld   hl, Str118
 D424   EF6145    bcall(_VPutS)     
 D427   210100    ld   hl, 0001h
 D42A   22D786    ld   (penCol), hl 
 D42D   212200    ld   hl, 0022h
 D430   7D        ld   a, l    
 D431   32D886    ld   (penRow), a  
 D434   21E2EE    ld   hl, Str119
 D437   EF6145    bcall(_VPutS)     
 D43A   210100    ld   hl, 0001h
 D43D   22D786    ld   (penCol), hl 
 D440   213200    ld   hl, 0032h
 D443   7D        ld   a, l    
 D444   32D886    ld   (penRow), a  
 D447   21E8E6    ld   hl, Str11
 D44A   EF6145    bcall(_VPutS)     
 D44D   CDBADE    call Label21
 D450   C37AD5    jp   Label444

Label445:
 D453   2A3B8A    ld   hl, (timer1max) 
 D456   2600      ld   h, 00h
 D458   7D        ld   a, l    
 D459   D61F      sub  1Fh
 D45B   B4        or   h       
 D45C   C6FF      add  a, 0FFh
 D45E   ED62      sbc  hl, hl  
 D460   23        inc  hl      
 D461   7C        ld   a, h    
 D462   B5        or   l       
 D463   CAE8D4    jp   z, Label446
 D466   210100    ld   hl, 0001h
 D469   7D        ld   a, l    
 D46A   32568A    ld   (08A56h), a  
 D46D   EFD04B    bcall(_GrBufClr)     
 D470   210100    ld   hl, 0001h
 D473   22D786    ld   (penCol), hl 
 D476   210200    ld   hl, 0002h
 D479   7D        ld   a, l    
 D47A   32D886    ld   (penRow), a  
 D47D   21FEEE    ld   hl, Str120
 D480   EF6145    bcall(_VPutS)     
 D483   210100    ld   hl, 0001h
 D486   22D786    ld   (penCol), hl 
 D489   210A00    ld   hl, 000Ah
 D48C   7D        ld   a, l    
 D48D   32D886    ld   (penRow), a  
 D490   2113EF    ld   hl, Str121
 D493   EF6145    bcall(_VPutS)     
 D496   210100    ld   hl, 0001h
 D499   22D786    ld   (penCol), hl 
 D49C   211200    ld   hl, 0012h
 D49F   7D        ld   a, l    
 D4A0   32D886    ld   (penRow), a  
 D4A3   212AEF    ld   hl, Str122
 D4A6   EF6145    bcall(_VPutS)     
 D4A9   210100    ld   hl, 0001h
 D4AC   22D786    ld   (penCol), hl 
 D4AF   211A00    ld   hl, 001Ah
 D4B2   7D        ld   a, l    
 D4B3   32D886    ld   (penRow), a  
 D4B6   2143EF    ld   hl, Str123
 D4B9   EF6145    bcall(_VPutS)     
 D4BC   210100    ld   hl, 0001h
 D4BF   22D786    ld   (penCol), hl 
 D4C2   212200    ld   hl, 0022h
 D4C5   7D        ld   a, l    
 D4C6   32D886    ld   (penRow), a  
 D4C9   215CEF    ld   hl, Str124
 D4CC   EF6145    bcall(_VPutS)     
 D4CF   210100    ld   hl, 0001h
 D4D2   22D786    ld   (penCol), hl 
 D4D5   213200    ld   hl, 0032h
 D4D8   7D        ld   a, l    
 D4D9   32D886    ld   (penRow), a  
 D4DC   21E8E6    ld   hl, Str11
 D4DF   EF6145    bcall(_VPutS)     
 D4E2   CDBADE    call Label21
 D4E5   C37AD5    jp   Label444

Label446:
 D4E8   2A3B8A    ld   hl, (timer1max) 
 D4EB   2600      ld   h, 00h
 D4ED   7D        ld   a, l    
 D4EE   D63D      sub  3Dh
 D4F0   B4        or   h       
 D4F1   C6FF      add  a, 0FFh
 D4F3   ED62      sbc  hl, hl  
 D4F5   23        inc  hl      
 D4F6   7C        ld   a, h    
 D4F7   B5        or   l       
 D4F8   CA7AD5    jp   z, Label444
 D4FB   210100    ld   hl, 0001h
 D4FE   7D        ld   a, l    
 D4FF   32568A    ld   (08A56h), a  
 D502   EFD04B    bcall(_GrBufClr)     
 D505   210100    ld   hl, 0001h
 D508   22D786    ld   (penCol), hl 
 D50B   210200    ld   hl, 0002h
 D50E   7D        ld   a, l    
 D50F   32D886    ld   (penRow), a  
 D512   2169EF    ld   hl, Str125
 D515   EF6145    bcall(_VPutS)     
 D518   210100    ld   hl, 0001h
 D51B   22D786    ld   (penCol), hl 
 D51E   210A00    ld   hl, 000Ah
 D521   7D        ld   a, l    
 D522   32D886    ld   (penRow), a  
 D525   2182EF    ld   hl, Str126
 D528   EF6145    bcall(_VPutS)     
 D52B   210100    ld   hl, 0001h
 D52E   22D786    ld   (penCol), hl 
 D531   211200    ld   hl, 0012h
 D534   7D        ld   a, l    
 D535   32D886    ld   (penRow), a  
 D538   2198EF    ld   hl, Str127
 D53B   EF6145    bcall(_VPutS)     
 D53E   210100    ld   hl, 0001h
 D541   22D786    ld   (penCol), hl 
 D544   211A00    ld   hl, 001Ah
 D547   7D        ld   a, l    
 D548   32D886    ld   (penRow), a  
 D54B   21AFEF    ld   hl, Str128
 D54E   EF6145    bcall(_VPutS)     
 D551   210100    ld   hl, 0001h
 D554   22D786    ld   (penCol), hl 
 D557   212200    ld   hl, 0022h
 D55A   7D        ld   a, l    
 D55B   32D886    ld   (penRow), a  
 D55E   21C4EF    ld   hl, Str129
 D561   EF6145    bcall(_VPutS)     
 D564   210100    ld   hl, 0001h
 D567   22D786    ld   (penCol), hl 
 D56A   213200    ld   hl, 0032h
 D56D   7D        ld   a, l    
 D56E   32D886    ld   (penRow), a  
 D571   21E8E6    ld   hl, Str11
 D574   EF6145    bcall(_VPutS)     
 D577   CDBADE    call Label21

Label444:
 D57A   2A568A    ld   hl, (08A56h) 
 D57D   2600      ld   h, 00h
 D57F   7D        ld   a, l    
 D580   3D        dec  a       
 D581   B4        or   h       
 D582   2802      jr   z, Label447
 D584   ED62      sbc  hl, hl  

Label447:
 D586   7C        ld   a, h    
 D587   B5        or   l       
 D588   CA98D5    jp   z, Label448
 D58B   CD99D5    call Label22
 D58E   EFD04B    bcall(_GrBufClr)     
 D591   210000    ld   hl, 0000h
 D594   7D        ld   a, l    
 D595   32568A    ld   (08A56h), a  

Label448:
 D598   C9        ret          

Label22:
 D599   210000    ld   hl, 0000h
 D59C   7D        ld   a, l    
 D59D   323F8A    ld   (08A3Fh), a  

Label450:
 D5A0   2A3F8A    ld   hl, (08A3Fh) 
 D5A3   2600      ld   h, 00h
 D5A5   7D        ld   a, l    
 D5A6   D630      sub  30h
 D5A8   B4        or   h       
 D5A9   D601      sub  01h
 D5AB   ED62      sbc  hl, hl  
 D5AD   23        inc  hl      
 D5AE   E5        push hl      
 D5AF   2A3F8A    ld   hl, (08A3Fh) 
 D5B2   2600      ld   h, 00h
 D5B4   7D        ld   a, l    
 D5B5   D60F      sub  0Fh
 D5B7   B4        or   h       
 D5B8   D601      sub  01h
 D5BA   ED62      sbc  hl, hl  
 D5BC   23        inc  hl      
 D5BD   D1        pop  de      
 D5BE   7D        ld   a, l    
 D5BF   A3        and  e       
 D5C0   6F        ld   l, a    
 D5C1   CAD0D5    jp   z, Label449
 D5C4   EF1840    bcall(_GetCSC)     
 D5C7   2600      ld   h, 00h
 D5C9   6F        ld   l, a    
 D5CA   7D        ld   a, l    
 D5CB   323F8A    ld   (08A3Fh), a  
 D5CE   18D0      jr   Label450

Label449:
 D5D0   C9        ret          

Label160:
 D5D1   210100    ld   hl, 0001h
 D5D4   1804      jr   Label451

Label459:
 D5D6   2AD289    ld   hl, (089D2h) 
 D5D9   23        inc  hl      

Label451:
 D5DA   22D289    ld   (089D2h), hl 
 D5DD   EB        ex   de, hl  
 D5DE   213200    ld   hl, 0032h
 D5E1   B7        or   a       
 D5E2   ED52      sbc  hl, de  
 D5E4   DA30D7    jp   c, Label452
 D5E7   CDACDE    call Label15
 D5EA   110700    ld   de, 0007h
 D5ED   CD6ADE    call Label16
 D5F0   23        inc  hl      
 D5F1   22B689    ld   (089B6h), hl 
 D5F4   CDACDE    call Label15
 D5F7   110D00    ld   de, 000Dh
 D5FA   CD6ADE    call Label16
 D5FD   23        inc  hl      
 D5FE   22B889    ld   (089B8h), hl 
 D601   CDF7B4    call Label91
 D604   2ABA89    ld   hl, (089BAh) 
 D607   11EC86    ld   de, saveSScreen
 D60A   19        add  hl, de  
 D60B   6E        ld   l, (hl) 
 D60C   AF        xor  a       
 D60D   67        ld   h, a    
 D60E   B5        or   l       
 D60F   C22DD7    jp   nz, Label453
 D612   2A5F8A    ld   hl, (08A5Fh) 
 D615   AF        xor  a       
 D616   67        ld   h, a    
 D617   B5        or   l       
 D618   C271D6    jp   nz, Label454
 D61B   2A598A    ld   hl, (08A59h) 
 D61E   2600      ld   h, 00h
 D620   23        inc  hl      
 D621   7D        ld   a, l    
 D622   32598A    ld   (08A59h), a  
 D625   216F00    ld   hl, 006Fh
 D628   E5        push hl      
 D629   2ABA89    ld   hl, (089BAh) 
 D62C   11EC86    ld   de, saveSScreen
 D62F   19        add  hl, de  
 D630   D1        pop  de      
 D631   73        ld   (hl), e 
 D632   210100    ld   hl, 0001h
 D635   E5        push hl      
 D636   2ABA89    ld   hl, (089BAh) 
 D639   117000    ld   de, 0070h
 D63C   19        add  hl, de  
 D63D   11EC86    ld   de, saveSScreen
 D640   19        add  hl, de  
 D641   D1        pop  de      
 D642   73        ld   (hl), e 
 D643   2ABA89    ld   hl, (089BAh) 
 D646   11E000    ld   de, 00E0h
 D649   19        add  hl, de  
 D64A   22C089    ld   (089C0h), hl 
 D64D   117000    ld   de, 0070h
 D650   19        add  hl, de  
 D651   22C289    ld   (089C2h), hl 
 D654   211E00    ld   hl, 001Eh
 D657   E5        push hl      
 D658   2AC089    ld   hl, (089C0h) 
 D65B   11EC86    ld   de, saveSScreen
 D65E   19        add  hl, de  
 D65F   D1        pop  de      
 D660   73        ld   (hl), e 
 D661   210300    ld   hl, 0003h
 D664   E5        push hl      
 D665   2AC289    ld   hl, (089C2h) 
 D668   11EC86    ld   de, saveSScreen
 D66B   19        add  hl, de  
 D66C   D1        pop  de      
 D66D   73        ld   (hl), e 
 D66E   C3CED6    jp   Label455

Label454:
 D671   216800    ld   hl, 0068h
 D674   E5        push hl      
 D675   2ABA89    ld   hl, (089BAh) 
 D678   11EC86    ld   de, saveSScreen
 D67B   19        add  hl, de  
 D67C   D1        pop  de      
 D67D   73        ld   (hl), e 
 D67E   210100    ld   hl, 0001h
 D681   E5        push hl      
 D682   2ABA89    ld   hl, (089BAh) 
 D685   117000    ld   de, 0070h
 D688   19        add  hl, de  
 D689   11EC86    ld   de, saveSScreen
 D68C   19        add  hl, de  
 D68D   D1        pop  de      
 D68E   73        ld   (hl), e 
 D68F   2ABA89    ld   hl, (089BAh) 
 D692   11E000    ld   de, 00E0h
 D695   19        add  hl, de  
 D696   22C089    ld   (089C0h), hl 
 D699   117000    ld   de, 0070h
 D69C   19        add  hl, de  
 D69D   22C289    ld   (089C2h), hl 
 D6A0   CDACDE    call Label15
 D6A3   111900    ld   de, 0019h
 D6A6   CD6ADE    call Label16
 D6A9   111100    ld   de, 0011h
 D6AC   19        add  hl, de  
 D6AD   E5        push hl      
 D6AE   2AC089    ld   hl, (089C0h) 
 D6B1   11EC86    ld   de, saveSScreen
 D6B4   19        add  hl, de  
 D6B5   D1        pop  de      
 D6B6   73        ld   (hl), e 
 D6B7   CDACDE    call Label15
 D6BA   2600      ld   h, 00h
 D6BC   7D        ld   a, l    
 D6BD   E607      and  07h
 D6BF   6F        ld   l, a    
 D6C0   110600    ld   de, 0006h
 D6C3   19        add  hl, de  
 D6C4   E5        push hl      
 D6C5   2AC289    ld   hl, (089C2h) 
 D6C8   11EC86    ld   de, saveSScreen
 D6CB   19        add  hl, de  
 D6CC   D1        pop  de      
 D6CD   73        ld   (hl), e 

Label455:
 D6CE   212800    ld   hl, 0028h
 D6D1   1804      jr   Label456

Label458:
 D6D3   2AD289    ld   hl, (089D2h) 
 D6D6   23        inc  hl      

Label456:
 D6D7   22D289    ld   (089D2h), hl 
 D6DA   EB        ex   de, hl  
 D6DB   213300    ld   hl, 0033h
 D6DE   B7        or   a       
 D6DF   ED52      sbc  hl, de  
 D6E1   DA26D7    jp   c, Label457
 D6E4   2AB889    ld   hl, (089B8h) 
 D6E7   54        ld   d, h    
 D6E8   5D        ld   e, l    
 D6E9   29        add  hl, hl  
 D6EA   19        add  hl, de  
 D6EB   29        add  hl, hl  
 D6EC   E5        push hl      
 D6ED   2AB689    ld   hl, (089B6h) 
 D6F0   23        inc  hl      
 D6F1   54        ld   d, h    
 D6F2   5D        ld   e, l    
 D6F3   29        add  hl, hl  
 D6F4   19        add  hl, de  
 D6F5   29        add  hl, hl  
 D6F6   19        add  hl, de  
 D6F7   E5        push hl      
 D6F8   214AE3    ld   hl, Str108
 D6FB   CD02DF    call Label198
 D6FE   2AB889    ld   hl, (089B8h) 
 D701   54        ld   d, h    
 D702   5D        ld   e, l    
 D703   29        add  hl, hl  
 D704   19        add  hl, de  
 D705   29        add  hl, hl  
 D706   E5        push hl      
 D707   2AB689    ld   hl, (089B6h) 
 D70A   23        inc  hl      
 D70B   54        ld   d, h    
 D70C   5D        ld   e, l    
 D70D   29        add  hl, hl  
 D70E   19        add  hl, de  
 D70F   29        add  hl, hl  
 D710   19        add  hl, de  
 D711   E5        push hl      
 D712   2152E3    ld   hl, Str109
 D715   E5        push hl      
 D716   DDE1      pop  ix      
 D718   216798    ld   hl, flashByte1
 D71B   CD08DF    call Label188
 D71E   CDBADE    call Label21
 D721   CD94DF    call Label85
 D724   18AD      jr   Label458

Label457:
 D726   210100    ld   hl, 0001h
 D729   7D        ld   a, l    
 D72A   32488A    ld   (08A48h), a  

Label453:
 D72D   C3D6D5    jp   Label459

Label452:
 D730   C9        ret          

Label163:
 D731   CDACDE    call Label15
 D734   2600      ld   h, 00h
 D736   7D        ld   a, l    
 D737   E603      and  03h
 D739   6F        ld   l, a    
 D73A   23        inc  hl      
 D73B   22D689    ld   (089D6h), hl 
 D73E   1804      jr   Label460

Label467:
 D740   2AD489    ld   hl, (089D4h) 
 D743   23        inc  hl      

Label460:
 D744   22D489    ld   (089D4h), hl 
 D747   EB        ex   de, hl  
 D748   210200    ld   hl, 0002h
 D74B   B7        or   a       
 D74C   ED52      sbc  hl, de  
 D74E   DA02D8    jp   c, Label461
 D751   210100    ld   hl, 0001h
 D754   1804      jr   Label462

Label466:
 D756   2AD289    ld   hl, (089D2h) 
 D759   23        inc  hl      

Label462:
 D75A   22D289    ld   (089D2h), hl 
 D75D   EB        ex   de, hl  
 D75E   213200    ld   hl, 0032h
 D761   B7        or   a       
 D762   ED52      sbc  hl, de  
 D764   DAFFD7    jp   c, Label463
 D767   CDACDE    call Label15
 D76A   110700    ld   de, 0007h
 D76D   CD6ADE    call Label16
 D770   23        inc  hl      
 D771   22B689    ld   (089B6h), hl 
 D774   CDACDE    call Label15
 D777   110D00    ld   de, 000Dh
 D77A   CD6ADE    call Label16
 D77D   23        inc  hl      
 D77E   22B889    ld   (089B8h), hl 
 D781   CDF7B4    call Label91
 D784   2ABA89    ld   hl, (089BAh) 
 D787   11EC86    ld   de, saveSScreen
 D78A   19        add  hl, de  
 D78B   6E        ld   l, (hl) 
 D78C   AF        xor  a       
 D78D   67        ld   h, a    
 D78E   B5        or   l       
 D78F   C2FCD7    jp   nz, Label464
 D792   213200    ld   hl, 0032h
 D795   22D289    ld   (089D2h), hl 
 D798   2ABA89    ld   hl, (089BAh) 
 D79B   11E000    ld   de, 00E0h
 D79E   19        add  hl, de  
 D79F   22C089    ld   (089C0h), hl 
 D7A2   117000    ld   de, 0070h
 D7A5   19        add  hl, de  
 D7A6   22C289    ld   (089C2h), hl 
 D7A9   216E00    ld   hl, 006Eh
 D7AC   E5        push hl      
 D7AD   2ABA89    ld   hl, (089BAh) 
 D7B0   11EC86    ld   de, saveSScreen
 D7B3   19        add  hl, de  
 D7B4   D1        pop  de      
 D7B5   73        ld   (hl), e 
 D7B6   2A3B8A    ld   hl, (timer1max) 
 D7B9   2600      ld   h, 00h
 D7BB   29        add  hl, hl  
 D7BC   E5        push hl      
 D7BD   2AC089    ld   hl, (089C0h) 
 D7C0   11EC86    ld   de, saveSScreen
 D7C3   19        add  hl, de  
 D7C4   D1        pop  de      
 D7C5   73        ld   (hl), e 
 D7C6   2A3B8A    ld   hl, (timer1max) 
 D7C9   2600      ld   h, 00h
 D7CB   AF        xor  a       
 D7CC   11FDFF    ld   de, 0FFFDh
 D7CF   19        add  hl, de  
 D7D0   67        ld   h, a    
 D7D1   17        rla          
 D7D2   6F        ld   l, a    
 D7D3   B4        or   h       
 D7D4   CAEFD7    jp   z, Label465
 D7D7   2A3B8A    ld   hl, (timer1max) 
 D7DA   2600      ld   h, 00h
 D7DC   110300    ld   de, 0003h
 D7DF   CD43DE    call Label171
 D7E2   E5        push hl      
 D7E3   2AC289    ld   hl, (089C2h) 
 D7E6   11EC86    ld   de, saveSScreen
 D7E9   19        add  hl, de  
 D7EA   D1        pop  de      
 D7EB   73        ld   (hl), e 
 D7EC   C3FCD7    jp   Label464

Label465:
 D7EF   210100    ld   hl, 0001h
 D7F2   E5        push hl      
 D7F3   2AC289    ld   hl, (089C2h) 
 D7F6   11EC86    ld   de, saveSScreen
 D7F9   19        add  hl, de  
 D7FA   D1        pop  de      
 D7FB   73        ld   (hl), e 

Label464:
 D7FC   C356D7    jp   Label466

Label463:
 D7FF   C340D7    jp   Label467

Label461:
 D802   C9        ret          

Label313:
 D803   2A3F8A    ld   hl, (08A3Fh) 
 D806   2600      ld   h, 00h
 D808   7D        ld   a, l    
 D809   D60F      sub  0Fh
 D80B   B4        or   h       
 D80C   D601      sub  01h
 D80E   ED62      sbc  hl, hl  
 D810   23        inc  hl      
 D811   7C        ld   a, h    
 D812   B5        or   l       
 D813   CA2BD9    jp   z, Label468
 D816   210000    ld   hl, 0000h
 D819   22CE89    ld   (089CEh), hl 

Label470:
 D81C   2ACE89    ld   hl, (089CEh) 
 D81F   AF        xor  a       
 D820   11E9FF    ld   de, 0FFE9h
 D823   19        add  hl, de  
 D824   67        ld   h, a    
 D825   17        rla          
 D826   6F        ld   l, a    
 D827   E5        push hl      
 D828   2ACE89    ld   hl, (089CEh) 
 D82B   11EEFF    ld   de, 0FFEEh
 D82E   19        add  hl, de  
 D82F   ED62      sbc  hl, hl  
 D831   23        inc  hl      
 D832   D1        pop  de      
 D833   7D        ld   a, l    
 D834   B3        or   e       
 D835   6F        ld   l, a    
 D836   B4        or   h       
 D837   CA4CD8    jp   z, Label469
 D83A   CDACDE    call Label15
 D83D   111600    ld   de, 0016h
 D840   CD6ADE    call Label16
 D843   111200    ld   de, 0012h
 D846   19        add  hl, de  
 D847   22CE89    ld   (089CEh), hl 
 D84A   18D0      jr   Label470

Label469:
 D84C   2ACE89    ld   hl, (089CEh) 
 D84F   113A8A    ld   de, statVars
 D852   19        add  hl, de  
 D853   6E        ld   l, (hl) 
 D854   2600      ld   h, 00h
 D856   AF        xor  a       
 D857   11FDFF    ld   de, 0FFFDh
 D85A   19        add  hl, de  
 D85B   67        ld   h, a    
 D85C   17        rla          
 D85D   6F        ld   l, a    
 D85E   E5        push hl      
 D85F   2ACE89    ld   hl, (089CEh) 
 D862   113A8A    ld   de, statVars
 D865   19        add  hl, de  
 D866   6E        ld   l, (hl) 
 D867   2600      ld   h, 00h
 D869   11F6FF    ld   de, 0FFF6h
 D86C   19        add  hl, de  
 D86D   ED62      sbc  hl, hl  
 D86F   23        inc  hl      
 D870   D1        pop  de      
 D871   7D        ld   a, l    
 D872   A3        and  e       
 D873   6F        ld   l, a    
 D874   CA2BD9    jp   z, Label468
 D877   210100    ld   hl, 0001h
 D87A   1804      jr   Label471

Label476:
 D87C   2AB689    ld   hl, (089B6h) 
 D87F   23        inc  hl      

Label471:
 D880   22B689    ld   (089B6h), hl 
 D883   EB        ex   de, hl  
 D884   212D00    ld   hl, 002Dh
 D887   B7        or   a       
 D888   ED52      sbc  hl, de  
 D88A   DAF9D8    jp   c, Label472
 D88D   217298    ld   hl, appBackUpScreen
 D890   EF7450    bcall(_BufClr)     
 D893   EFD04B    bcall(_GrBufClr)     
 D896   2AB689    ld   hl, (089B6h) 
 D899   E5        push hl      
 D89A   211E00    ld   hl, 001Eh
 D89D   E5        push hl      
 D89E   2ACE89    ld   hl, (089CEh) 
 D8A1   113A8A    ld   de, statVars
 D8A4   19        add  hl, de  
 D8A5   6E        ld   l, (hl) 
 D8A6   2600      ld   h, 00h
 D8A8   110700    ld   de, 0007h
 D8AB   19        add  hl, de  
 D8AC   29        add  hl, hl  
 D8AD   29        add  hl, hl  
 D8AE   29        add  hl, hl  
 D8AF   11B2E1    ld   de, Str72
 D8B2   19        add  hl, de  
 D8B3   CD02DF    call Label198
 D8B6   2AB689    ld   hl, (089B6h) 
 D8B9   E5        push hl      
 D8BA   211E00    ld   hl, 001Eh
 D8BD   E5        push hl      
 D8BE   2ACE89    ld   hl, (089CEh) 
 D8C1   113A8A    ld   de, statVars
 D8C4   19        add  hl, de  
 D8C5   6E        ld   l, (hl) 
 D8C6   2600      ld   h, 00h
 D8C8   110F00    ld   de, 000Fh
 D8CB   19        add  hl, de  
 D8CC   29        add  hl, hl  
 D8CD   29        add  hl, hl  
 D8CE   29        add  hl, hl  
 D8CF   11B2E1    ld   de, Str72
 D8D2   19        add  hl, de  
 D8D3   E5        push hl      
 D8D4   DDE1      pop  ix      
 D8D6   216798    ld   hl, flashByte1
 D8D9   CD08DF    call Label188
 D8DC   210100    ld   hl, 0001h
 D8DF   1804      jr   Label473

Label475:
 D8E1   2AB889    ld   hl, (089B8h) 
 D8E4   23        inc  hl      

Label473:
 D8E5   22B889    ld   (089B8h), hl 
 D8E8   EB        ex   de, hl  
 D8E9   210200    ld   hl, 0002h
 D8EC   B7        or   a       
 D8ED   ED52      sbc  hl, de  
 D8EF   DAF7D8    jp   c, Label474
 D8F2   CDE7DF    call Label209
 D8F5   18EA      jr   Label475

Label474:
 D8F7   1883      jr   Label476

Label472:
 D8F9   210100    ld   hl, 0001h
 D8FC   1804      jr   Label477

Label479:
 D8FE   2AB889    ld   hl, (089B8h) 
 D901   23        inc  hl      

Label477:
 D902   22B889    ld   (089B8h), hl 
 D905   EB        ex   de, hl  
 D906   219600    ld   hl, 0096h
 D909   B7        or   a       
 D90A   ED52      sbc  hl, de  
 D90C   DA14D9    jp   c, Label478
 D90F   CDE7DF    call Label209
 D912   18EA      jr   Label479

Label478:
 D914   CDA9CF    call Label48
 D917   210000    ld   hl, 0000h
 D91A   E5        push hl      
 D91B   2ACE89    ld   hl, (089CEh) 
 D91E   113A8A    ld   de, statVars
 D921   19        add  hl, de  
 D922   D1        pop  de      
 D923   73        ld   (hl), e 
 D924   210000    ld   hl, 0000h
 D927   7D        ld   a, l    
 D928   32608A    ld   (08A60h), a  

Label468:
 D92B   C9        ret          

Label73:
 D92C   211900    ld   hl, 0019h
 D92F   1804      jr   Label480

Label504:
 D931   2AE889    ld   hl, (089E8h) 
 D934   23        inc  hl      

Label480:
 D935   22E889    ld   (089E8h), hl 
 D938   EB        ex   de, hl  
 D939   212500    ld   hl, 0025h
 D93C   B7        or   a       
 D93D   ED52      sbc  hl, de  
 D93F   DADEDB    jp   c, Label481
 D942   210100    ld   hl, 0001h
 D945   1804      jr   Label482

Label487:
 D947   2AB689    ld   hl, (089B6h) 
 D94A   23        inc  hl      

Label482:
 D94B   22B689    ld   (089B6h), hl 
 D94E   EB        ex   de, hl  
 D94F   212D00    ld   hl, 002Dh
 D952   B7        or   a       
 D953   ED52      sbc  hl, de  
 D955   DAB2D9    jp   c, Label483
 D958   217298    ld   hl, appBackUpScreen
 D95B   EF7450    bcall(_BufClr)     
 D95E   EFD04B    bcall(_GrBufClr)     
 D961   2AB689    ld   hl, (089B6h) 
 D964   E5        push hl      
 D965   211E00    ld   hl, 001Eh
 D968   E5        push hl      
 D969   2AE889    ld   hl, (089E8h) 
 D96C   29        add  hl, hl  
 D96D   29        add  hl, hl  
 D96E   29        add  hl, hl  
 D96F   11B2E1    ld   de, Str72
 D972   19        add  hl, de  
 D973   CD02DF    call Label198
 D976   2AB689    ld   hl, (089B6h) 
 D979   E5        push hl      
 D97A   211E00    ld   hl, 001Eh
 D97D   E5        push hl      
 D97E   2AE889    ld   hl, (089E8h) 
 D981   110D00    ld   de, 000Dh
 D984   19        add  hl, de  
 D985   29        add  hl, hl  
 D986   29        add  hl, hl  
 D987   29        add  hl, hl  
 D988   11B2E1    ld   de, Str72
 D98B   19        add  hl, de  
 D98C   E5        push hl      
 D98D   DDE1      pop  ix      
 D98F   216798    ld   hl, flashByte1
 D992   CD08DF    call Label188
 D995   210100    ld   hl, 0001h
 D998   1804      jr   Label484

Label486:
 D99A   2AB889    ld   hl, (089B8h) 
 D99D   23        inc  hl      

Label484:
 D99E   22B889    ld   (089B8h), hl 
 D9A1   EB        ex   de, hl  
 D9A2   210200    ld   hl, 0002h
 D9A5   B7        or   a       
 D9A6   ED52      sbc  hl, de  
 D9A8   DAB0D9    jp   c, Label485
 D9AB   CDE7DF    call Label209
 D9AE   18EA      jr   Label486

Label485:
 D9B0   1895      jr   Label487

Label483:
 D9B2   2AE889    ld   hl, (089E8h) 
 D9B5   7D        ld   a, l    
 D9B6   D619      sub  19h
 D9B8   B4        or   h       
 D9B9   C6FF      add  a, 0FFh
 D9BB   ED62      sbc  hl, hl  
 D9BD   23        inc  hl      
 D9BE   7C        ld   a, h    
 D9BF   B5        or   l       
 D9C0   CAD9D9    jp   z, Label488
 D9C3   212A00    ld   hl, 002Ah
 D9C6   22D786    ld   (penCol), hl 
 D9C9   212800    ld   hl, 0028h
 D9CC   7D        ld   a, l    
 D9CD   32D886    ld   (penRow), a  
 D9D0   21D6EF    ld   hl, Str130
 D9D3   EF6145    bcall(_VPutS)     
 D9D6   C3BDDB    jp   Label489

Label488:
 D9D9   2AE889    ld   hl, (089E8h) 
 D9DC   7D        ld   a, l    
 D9DD   D61A      sub  1Ah
 D9DF   B4        or   h       
 D9E0   C6FF      add  a, 0FFh
 D9E2   ED62      sbc  hl, hl  
 D9E4   23        inc  hl      
 D9E5   7C        ld   a, h    
 D9E6   B5        or   l       
 D9E7   CA00DA    jp   z, Label490
 D9EA   211B00    ld   hl, 001Bh
 D9ED   22D786    ld   (penCol), hl 
 D9F0   212800    ld   hl, 0028h
 D9F3   7D        ld   a, l    
 D9F4   32D886    ld   (penRow), a  
 D9F7   21DAEF    ld   hl, Str131
 D9FA   EF6145    bcall(_VPutS)     
 D9FD   C3BDDB    jp   Label489

Label490:
 DA00   2AE889    ld   hl, (089E8h) 
 DA03   7D        ld   a, l    
 DA04   D61B      sub  1Bh
 DA06   B4        or   h       
 DA07   C6FF      add  a, 0FFh
 DA09   ED62      sbc  hl, hl  
 DA0B   23        inc  hl      
 DA0C   7C        ld   a, h    
 DA0D   B5        or   l       
 DA0E   CA27DA    jp   z, Label491
 DA11   212500    ld   hl, 0025h
 DA14   22D786    ld   (penCol), hl 
 DA17   212800    ld   hl, 0028h
 DA1A   7D        ld   a, l    
 DA1B   32D886    ld   (penRow), a  
 DA1E   21E6EF    ld   hl, Str132
 DA21   EF6145    bcall(_VPutS)     
 DA24   C3BDDB    jp   Label489

Label491:
 DA27   2AE889    ld   hl, (089E8h) 
 DA2A   7D        ld   a, l    
 DA2B   D61C      sub  1Ch
 DA2D   B4        or   h       
 DA2E   C6FF      add  a, 0FFh
 DA30   ED62      sbc  hl, hl  
 DA32   23        inc  hl      
 DA33   7C        ld   a, h    
 DA34   B5        or   l       
 DA35   CA4EDA    jp   z, Label492
 DA38   211F00    ld   hl, 001Fh
 DA3B   22D786    ld   (penCol), hl 
 DA3E   212800    ld   hl, 0028h
 DA41   7D        ld   a, l    
 DA42   32D886    ld   (penRow), a  
 DA45   21EDEF    ld   hl, Str133
 DA48   EF6145    bcall(_VPutS)     
 DA4B   C3BDDB    jp   Label489

Label492:
 DA4E   2AE889    ld   hl, (089E8h) 
 DA51   7D        ld   a, l    
 DA52   D61D      sub  1Dh
 DA54   B4        or   h       
 DA55   C6FF      add  a, 0FFh
 DA57   ED62      sbc  hl, hl  
 DA59   23        inc  hl      
 DA5A   7C        ld   a, h    
 DA5B   B5        or   l       
 DA5C   CA75DA    jp   z, Label493
 DA5F   212300    ld   hl, 0023h
 DA62   22D786    ld   (penCol), hl 
 DA65   212800    ld   hl, 0028h
 DA68   7D        ld   a, l    
 DA69   32D886    ld   (penRow), a  
 DA6C   21F9EF    ld   hl, Str134
 DA6F   EF6145    bcall(_VPutS)     
 DA72   C3BDDB    jp   Label489

Label493:
 DA75   2AE889    ld   hl, (089E8h) 
 DA78   7D        ld   a, l    
 DA79   D61E      sub  1Eh
 DA7B   B4        or   h       
 DA7C   C6FF      add  a, 0FFh
 DA7E   ED62      sbc  hl, hl  
 DA80   23        inc  hl      
 DA81   7C        ld   a, h    
 DA82   B5        or   l       
 DA83   CA9CDA    jp   z, Label494
 DA86   211B00    ld   hl, 001Bh
 DA89   22D786    ld   (penCol), hl 
 DA8C   212800    ld   hl, 0028h
 DA8F   7D        ld   a, l    
 DA90   32D886    ld   (penRow), a  
 DA93   2101F0    ld   hl, Str135
 DA96   EF6145    bcall(_VPutS)     
 DA99   C3BDDB    jp   Label489

Label494:
 DA9C   2AE889    ld   hl, (089E8h) 
 DA9F   7D        ld   a, l    
 DAA0   D61F      sub  1Fh
 DAA2   B4        or   h       
 DAA3   C6FF      add  a, 0FFh
 DAA5   ED62      sbc  hl, hl  
 DAA7   23        inc  hl      
 DAA8   7C        ld   a, h    
 DAA9   B5        or   l       
 DAAA   CAC3DA    jp   z, Label495
 DAAD   212000    ld   hl, 0020h
 DAB0   22D786    ld   (penCol), hl 
 DAB3   212800    ld   hl, 0028h
 DAB6   7D        ld   a, l    
 DAB7   32D886    ld   (penRow), a  
 DABA   210EF0    ld   hl, Str136
 DABD   EF6145    bcall(_VPutS)     
 DAC0   C3BDDB    jp   Label489

Label495:
 DAC3   2AE889    ld   hl, (089E8h) 
 DAC6   7D        ld   a, l    
 DAC7   D620      sub  20h
 DAC9   B4        or   h       
 DACA   C6FF      add  a, 0FFh
 DACC   ED62      sbc  hl, hl  
 DACE   23        inc  hl      
 DACF   7C        ld   a, h    
 DAD0   B5        or   l       
 DAD1   CAEADA    jp   z, Label496
 DAD4   212000    ld   hl, 0020h
 DAD7   22D786    ld   (penCol), hl 
 DADA   212800    ld   hl, 0028h
 DADD   7D        ld   a, l    
 DADE   32D886    ld   (penRow), a  
 DAE1   2118F0    ld   hl, Str137
 DAE4   EF6145    bcall(_VPutS)     
 DAE7   C3BDDB    jp   Label489

Label496:
 DAEA   2AE889    ld   hl, (089E8h) 
 DAED   7D        ld   a, l    
 DAEE   D621      sub  21h
 DAF0   B4        or   h       
 DAF1   C6FF      add  a, 0FFh
 DAF3   ED62      sbc  hl, hl  
 DAF5   23        inc  hl      
 DAF6   7C        ld   a, h    
 DAF7   B5        or   l       
 DAF8   CA24DB    jp   z, Label497
 DAFB   210F00    ld   hl, 000Fh
 DAFE   22D786    ld   (penCol), hl 
 DB01   212800    ld   hl, 0028h
 DB04   7D        ld   a, l    
 DB05   32D886    ld   (penRow), a  
 DB08   2123F0    ld   hl, Str138
 DB0B   EF6145    bcall(_VPutS)     
 DB0E   212300    ld   hl, 0023h
 DB11   22D786    ld   (penCol), hl 
 DB14   213000    ld   hl, 0030h
 DB17   7D        ld   a, l    
 DB18   32D886    ld   (penRow), a  
 DB1B   2136F0    ld   hl, Str139
 DB1E   EF6145    bcall(_VPutS)     
 DB21   C3BDDB    jp   Label489

Label497:
 DB24   2AE889    ld   hl, (089E8h) 
 DB27   7D        ld   a, l    
 DB28   D622      sub  22h
 DB2A   B4        or   h       
 DB2B   C6FF      add  a, 0FFh
 DB2D   ED62      sbc  hl, hl  
 DB2F   23        inc  hl      
 DB30   7C        ld   a, h    
 DB31   B5        or   l       
 DB32   CA4BDB    jp   z, Label498
 DB35   211A00    ld   hl, 001Ah
 DB38   22D786    ld   (penCol), hl 
 DB3B   212800    ld   hl, 0028h
 DB3E   7D        ld   a, l    
 DB3F   32D886    ld   (penRow), a  
 DB42   213FF0    ld   hl, Str140
 DB45   EF6145    bcall(_VPutS)     
 DB48   C3BDDB    jp   Label489

Label498:
 DB4B   2AE889    ld   hl, (089E8h) 
 DB4E   7D        ld   a, l    
 DB4F   D623      sub  23h
 DB51   B4        or   h       
 DB52   C6FF      add  a, 0FFh
 DB54   ED62      sbc  hl, hl  
 DB56   23        inc  hl      
 DB57   7C        ld   a, h    
 DB58   B5        or   l       
 DB59   CA72DB    jp   z, Label499
 DB5C   212300    ld   hl, 0023h
 DB5F   22D786    ld   (penCol), hl 
 DB62   212A00    ld   hl, 002Ah
 DB65   7D        ld   a, l    
 DB66   32D886    ld   (penRow), a  
 DB69   214EF0    ld   hl, Str141
 DB6C   EF6145    bcall(_VPutS)     
 DB6F   C3BDDB    jp   Label489

Label499:
 DB72   2AE889    ld   hl, (089E8h) 
 DB75   7D        ld   a, l    
 DB76   D624      sub  24h
 DB78   B4        or   h       
 DB79   C6FF      add  a, 0FFh
 DB7B   ED62      sbc  hl, hl  
 DB7D   23        inc  hl      
 DB7E   7C        ld   a, h    
 DB7F   B5        or   l       
 DB80   CA99DB    jp   z, Label500
 DB83   212700    ld   hl, 0027h
 DB86   22D786    ld   (penCol), hl 
 DB89   212800    ld   hl, 0028h
 DB8C   7D        ld   a, l    
 DB8D   32D886    ld   (penRow), a  
 DB90   2157F0    ld   hl, Str142
 DB93   EF6145    bcall(_VPutS)     
 DB96   C3BDDB    jp   Label489

Label500:
 DB99   2AE889    ld   hl, (089E8h) 
 DB9C   7D        ld   a, l    
 DB9D   D625      sub  25h
 DB9F   B4        or   h       
 DBA0   C6FF      add  a, 0FFh
 DBA2   ED62      sbc  hl, hl  
 DBA4   23        inc  hl      
 DBA5   7C        ld   a, h    
 DBA6   B5        or   l       
 DBA7   CABDDB    jp   z, Label489
 DBAA   212700    ld   hl, 0027h
 DBAD   22D786    ld   (penCol), hl 
 DBB0   212800    ld   hl, 0028h
 DBB3   7D        ld   a, l    
 DBB4   32D886    ld   (penRow), a  
 DBB7   215EF0    ld   hl, Str143
 DBBA   EF6145    bcall(_VPutS)     

Label489:
 DBBD   210100    ld   hl, 0001h
 DBC0   1804      jr   Label501

Label503:
 DBC2   2AB889    ld   hl, (089B8h) 
 DBC5   23        inc  hl      

Label501:
 DBC6   22B889    ld   (089B8h), hl 
 DBC9   EB        ex   de, hl  
 DBCA   212C01    ld   hl, 0012Ch
 DBCD   B7        or   a       
 DBCE   ED52      sbc  hl, de  
 DBD0   DAD8DB    jp   c, Label502
 DBD3   CD94DF    call Label85
 DBD6   18EA      jr   Label503

Label502:
 DBD8   CDA9CF    call Label48
 DBDB   C331D9    jp   Label504

Label481:
 DBDE   C9        ret          

Label74:
 DBDF   217298    ld   hl, appBackUpScreen
 DBE2   EF7450    bcall(_BufClr)     
 DBE5   EFD04B    bcall(_GrBufClr)     
 DBE8   21E803    ld   hl, 003E8h

Label505:
 DBEB   10FE      djnz Label505
 DBED   2B        dec  hl      
 DBEE   7D        ld   a, l    
 DBEF   B4        or   h       
 DBF0   20F9      jr   nz, Label505
 DBF2   3A4784    ld   a, (contrast)  
 DBF5   C618      add  a, 18h
 DBF7   6F        ld   l, a    
 DBF8   2600      ld   h, 00h
 DBFA   7D        ld   a, l    
 DBFB   32618A    ld   (08A61h), a  
 DBFE   213F00    ld   hl, 003Fh
 DC01   7D        ld   a, l    
 DC02   F6C0      or   0C0h
 DC04   D310      out  (10h), a  
 DC06   CDBADE    call Label21
 DC09   21B80B    ld   hl, 00BB8h

Label506:
 DC0C   10FE      djnz Label506
 DC0E   2B        dec  hl      
 DC0F   7D        ld   a, l    
 DC10   B4        or   h       
 DC11   20F9      jr   nz, Label506
 DC13   212D00    ld   hl, 002Dh
 DC16   E5        push hl      
 DC17   211D00    ld   hl, 001Dh
 DC1A   E5        push hl      
 DC1B   2162E3    ld   hl, Str144
 DC1E   CD02DF    call Label198
 DC21   212D00    ld   hl, 002Dh
 DC24   E5        push hl      
 DC25   211D00    ld   hl, 001Dh
 DC28   E5        push hl      
 DC29   216AE3    ld   hl, Str145
 DC2C   E5        push hl      
 DC2D   DDE1      pop  ix      
 DC2F   216798    ld   hl, flashByte1
 DC32   CD08DF    call Label188
 DC35   CDBADE    call Label21
 DC38   21581B    ld   hl, 01B58h

Label507:
 DC3B   10FE      djnz Label507
 DC3D   2B        dec  hl      
 DC3E   7D        ld   a, l    
 DC3F   B4        or   h       
 DC40   20F9      jr   nz, Label507
 DC42   210000    ld   hl, 0000h
 DC45   1804      jr   Label508

Label513:
 DC47   2AE489    ld   hl, (089E4h) 
 DC4A   23        inc  hl      

Label508:
 DC4B   22E489    ld   (089E4h), hl 
 DC4E   E5        push hl      
 DC4F   213F00    ld   hl, 003Fh
 DC52   3A618A    ld   a, (08A61h)  
 DC55   5F        ld   e, a    
 DC56   1600      ld   d, 00h
 DC58   B7        or   a       
 DC59   ED52      sbc  hl, de  
 DC5B   D1        pop  de      
 DC5C   B7        or   a       
 DC5D   ED52      sbc  hl, de  
 DC5F   DA8EDC    jp   c, Label509
 DC62   213F00    ld   hl, 003Fh
 DC65   ED5BE489  ld   de, (089E4h) 
 DC69   B7        or   a       
 DC6A   ED52      sbc  hl, de  
 DC6C   7D        ld   a, l    
 DC6D   F6C0      or   0C0h
 DC6F   D310      out  (10h), a  
 DC71   210100    ld   hl, 0001h
 DC74   1804      jr   Label510

Label512:
 DC76   2AE689    ld   hl, (089E6h) 
 DC79   23        inc  hl      

Label510:
 DC7A   22E689    ld   (089E6h), hl 
 DC7D   EB        ex   de, hl  
 DC7E   211E00    ld   hl, 001Eh
 DC81   B7        or   a       
 DC82   ED52      sbc  hl, de  
 DC84   DA8CDC    jp   c, Label511
 DC87   CD94DF    call Label85
 DC8A   18EA      jr   Label512

Label511:
 DC8C   18B9      jr   Label513

Label509:
 DC8E   210100    ld   hl, 0001h
 DC91   1804      jr   Label514

Label519:
 DC93   2AE489    ld   hl, (089E4h) 
 DC96   23        inc  hl      

Label514:
 DC97   22E489    ld   (089E4h), hl 
 DC9A   EB        ex   de, hl  
 DC9B   212700    ld   hl, 0027h
 DC9E   B7        or   a       
 DC9F   ED52      sbc  hl, de  
 DCA1   DAFDDC    jp   c, Label515
 DCA4   217298    ld   hl, appBackUpScreen
 DCA7   EF7450    bcall(_BufClr)     
 DCAA   EFD04B    bcall(_GrBufClr)     
 DCAD   2AE489    ld   hl, (089E4h) 
 DCB0   E5        push hl      
 DCB1   211E00    ld   hl, 001Eh
 DCB4   E5        push hl      
 DCB5   21F2E1    ld   hl, Str146
 DCB8   CD02DF    call Label198
 DCBB   212D00    ld   hl, 002Dh
 DCBE   E5        push hl      
 DCBF   211D00    ld   hl, 001Dh
 DCC2   E5        push hl      
 DCC3   2162E3    ld   hl, Str144
 DCC6   CD02DF    call Label198
 DCC9   212D00    ld   hl, 002Dh
 DCCC   E5        push hl      
 DCCD   211D00    ld   hl, 001Dh
 DCD0   E5        push hl      
 DCD1   216AE3    ld   hl, Str145
 DCD4   E5        push hl      
 DCD5   DDE1      pop  ix      
 DCD7   216798    ld   hl, flashByte1
 DCDA   CD08DF    call Label188
 DCDD   CDE7DF    call Label209
 DCE0   210100    ld   hl, 0001h
 DCE3   1804      jr   Label516

Label518:
 DCE5   2AE689    ld   hl, (089E6h) 
 DCE8   23        inc  hl      

Label516:
 DCE9   22E689    ld   (089E6h), hl 
 DCEC   EB        ex   de, hl  
 DCED   210F00    ld   hl, 000Fh
 DCF0   B7        or   a       
 DCF1   ED52      sbc  hl, de  
 DCF3   DAFBDC    jp   c, Label517
 DCF6   CD94DF    call Label85
 DCF9   18EA      jr   Label518

Label517:
 DCFB   1896      jr   Label519

Label515:
 DCFD   210100    ld   hl, 0001h
 DD00   1804      jr   Label520

Label525:
 DD02   2AE489    ld   hl, (089E4h) 
 DD05   23        inc  hl      

Label520:
 DD06   22E489    ld   (089E4h), hl 
 DD09   EB        ex   de, hl  
 DD0A   212000    ld   hl, 0020h
 DD0D   B7        or   a       
 DD0E   ED52      sbc  hl, de  
 DD10   DA9DDD    jp   c, Label521
 DD13   217298    ld   hl, appBackUpScreen
 DD16   EF7450    bcall(_BufClr)     
 DD19   EFD04B    bcall(_GrBufClr)     
 DD1C   215500    ld   hl, 0055h
 DD1F   ED5BE489  ld   de, (089E4h) 
 DD23   B7        or   a       
 DD24   ED52      sbc  hl, de  
 DD26   E5        push hl      
 DD27   211E00    ld   hl, 001Eh
 DD2A   E5        push hl      
 DD2B   21C2E2    ld   hl, Str147
 DD2E   CD02DF    call Label198
 DD31   215500    ld   hl, 0055h
 DD34   ED5BE489  ld   de, (089E4h) 
 DD38   B7        or   a       
 DD39   ED52      sbc  hl, de  
 DD3B   E5        push hl      
 DD3C   211E00    ld   hl, 001Eh
 DD3F   E5        push hl      
 DD40   212AE3    ld   hl, Str148
 DD43   E5        push hl      
 DD44   DDE1      pop  ix      
 DD46   216798    ld   hl, flashByte1
 DD49   CD08DF    call Label188
 DD4C   212D00    ld   hl, 002Dh
 DD4F   E5        push hl      
 DD50   211D00    ld   hl, 001Dh
 DD53   E5        push hl      
 DD54   2162E3    ld   hl, Str144
 DD57   CD02DF    call Label198
 DD5A   212D00    ld   hl, 002Dh
 DD5D   E5        push hl      
 DD5E   211D00    ld   hl, 001Dh
 DD61   E5        push hl      
 DD62   216AE3    ld   hl, Str145
 DD65   E5        push hl      
 DD66   DDE1      pop  ix      
 DD68   216798    ld   hl, flashByte1
 DD6B   CD08DF    call Label188
 DD6E   212700    ld   hl, 0027h
 DD71   E5        push hl      
 DD72   211E00    ld   hl, 001Eh
 DD75   E5        push hl      
 DD76   21F2E1    ld   hl, Str146
 DD79   CD02DF    call Label198
 DD7C   CDE7DF    call Label209
 DD7F   210100    ld   hl, 0001h
 DD82   1804      jr   Label522

Label524:
 DD84   2AE689    ld   hl, (089E6h) 
 DD87   23        inc  hl      

Label522:
 DD88   22E689    ld   (089E6h), hl 
 DD8B   EB        ex   de, hl  
 DD8C   210F00    ld   hl, 000Fh
 DD8F   B7        or   a       
 DD90   ED52      sbc  hl, de  
 DD92   DA9ADD    jp   c, Label523
 DD95   CD94DF    call Label85
 DD98   18EA      jr   Label524

Label523:
 DD9A   C302DD    jp   Label525

Label521:
 DD9D   211400    ld   hl, 0014h
 DDA0   22D786    ld   (penCol), hl 
 DDA3   211400    ld   hl, 0014h
 DDA6   7D        ld   a, l    
 DDA7   32D886    ld   (penRow), a  
 DDAA   2164F0    ld   hl, Str149
 DDAD   EF6145    bcall(_VPutS)     
 DDB0   211600    ld   hl, 0016h
 DDB3   22D786    ld   (penCol), hl 
 DDB6   212800    ld   hl, 0028h
 DDB9   7D        ld   a, l    
 DDBA   32D886    ld   (penRow), a  
 DDBD   2174F0    ld   hl, Str150
 DDC0   EF6145    bcall(_VPutS)     
 DDC3   CDBADE    call Label21
 DDC6   210100    ld   hl, 0001h
 DDC9   1804      jr   Label526

Label528:
 DDCB   2AE489    ld   hl, (089E4h) 
 DDCE   23        inc  hl      

Label526:
 DDCF   22E489    ld   (089E4h), hl 
 DDD2   EB        ex   de, hl  
 DDD3   212C01    ld   hl, 0012Ch
 DDD6   B7        or   a       
 DDD7   ED52      sbc  hl, de  
 DDD9   DAE1DD    jp   c, Label527
 DDDC   CD94DF    call Label85
 DDDF   18EA      jr   Label528

Label527:
 DDE1   210000    ld   hl, 0000h
 DDE4   1804      jr   Label529

Label534:
 DDE6   2AE489    ld   hl, (089E4h) 
 DDE9   23        inc  hl      

Label529:
 DDEA   22E489    ld   (089E4h), hl 
 DDED   E5        push hl      
 DDEE   2A618A    ld   hl, (08A61h) 
 DDF1   2600      ld   h, 00h
 DDF3   D1        pop  de      
 DDF4   B7        or   a       
 DDF5   ED52      sbc  hl, de  
 DDF7   DA28DE    jp   c, Label530
 DDFA   2A618A    ld   hl, (08A61h) 
 DDFD   2600      ld   h, 00h
 DDFF   ED5BE489  ld   de, (089E4h) 
 DE03   B7        or   a       
 DE04   ED52      sbc  hl, de  
 DE06   7D        ld   a, l    
 DE07   F6C0      or   0C0h
 DE09   D310      out  (10h), a  
 DE0B   210100    ld   hl, 0001h
 DE0E   1804      jr   Label531

Label533:
 DE10   2AE689    ld   hl, (089E6h) 
 DE13   23        inc  hl      

Label531:
 DE14   22E689    ld   (089E6h), hl 
 DE17   EB        ex   de, hl  
 DE18   211400    ld   hl, 0014h
 DE1B   B7        or   a       
 DE1C   ED52      sbc  hl, de  
 DE1E   DA26DE    jp   c, Label532
 DE21   CD94DF    call Label85
 DE24   18EA      jr   Label533

Label532:
 DE26   18BE      jr   Label534

Label530:
 DE28   2A618A    ld   hl, (08A61h) 
 DE2B   2600      ld   h, 00h
 DE2D   7D        ld   a, l    
 DE2E   F6C0      or   0C0h
 DE30   D310      out  (10h), a  
 DE32   217298    ld   hl, appBackUpScreen
 DE35   EF7450    bcall(_BufClr)     
 DE38   EFD04B    bcall(_GrBufClr)     
 DE3B   CDBADE    call Label21
 DE3E   C9        ret          

Label81:
 DE3F   CD58E1    call Label2
 DE42   C9        ret          

Label171:
 DE43   0610      ld   b, 10h
 DE45   7A        ld   a, d    
 DE46   B7        or   a       
 DE47   2815      jr   z, Label536
 DE49   4D        ld   c, l    
 DE4A   7C        ld   a, h    
 DE4B   ED62      sbc  hl, hl  

Label538:
 DE4D   37        scf          
 DE4E   CB11      rl   c       
 DE50   17        rla          
 DE51   ED6A      adc  hl, hl  
 DE53   ED52      sbc  hl, de  
 DE55   3002      jr   nc, Label537
 DE57   19        add  hl, de  
 DE58   0D        dec  c       

Label537:
 DE59   10F2      djnz Label538
 DE5B   67        ld   h, a    
 DE5C   69        ld   l, c    
 DE5D   C9        ret          

Label536:
 DE5E   29        add  hl, hl  
 DE5F   17        rla          
 DE60   3803      jr   c, Label539
 DE62   BB        cp   e       
 DE63   3802      jr   c, Label540

Label539:
 DE65   93        sub  e       
 DE66   2C        inc  l       

Label540:
 DE67   10F5      djnz Label536
 DE69   C9        ret          

Label16:
 DE6A   7C        ld   a, h    
 DE6B   4D        ld   c, l    
 DE6C   210000    ld   hl, 0000h
 DE6F   0610      ld   b, 10h

Label542:
 DE71   37        scf          
 DE72   CB11      rl   c       
 DE74   17        rla          
 DE75   ED6A      adc  hl, hl  
 DE77   ED52      sbc  hl, de  
 DE79   3002      jr   nc, Label541
 DE7B   19        add  hl, de  
 DE7C   0D        dec  c       

Label541:
 DE7D   10F2      djnz Label542
 DE7F   C9        ret          

Label431:
 DE80   114093    ld   de, plotSScreen
 DE83   F1        pop  af      
 DE84   C1        pop  bc      
 DE85   F5        push af      
 DE86   0600      ld   b, 00h
 DE88   7D        ld   a, l    
 DE89   FE40      cp   40h
 DE8B   78        ld   a, b    
 DE8C   D0        ret  nc      
 DE8D   79        ld   a, c    
 DE8E   FE60      cp   60h
 DE90   78        ld   a, b    
 DE91   D0        ret  nc      
 DE92   60        ld   h, b    
 DE93   7D        ld   a, l    
 DE94   87        add  a, a    
 DE95   85        add  a, l    
 DE96   6F        ld   l, a    
 DE97   29        add  hl, hl  
 DE98   29        add  hl, hl  
 DE99   19        add  hl, de  
 DE9A   79        ld   a, c    
 DE9B   CB39      srl  c       
 DE9D   CB39      srl  c       
 DE9F   CB39      srl  c       
 DEA1   09        add  hl, bc  
 DEA2   E607      and  07h
 DEA4   47        ld   b, a    
 DEA5   3E80      ld   a, 80h
 DEA7   C8        ret  z       

Label543:
 DEA8   0F        rrca         
 DEA9   10FD      djnz Label543
 DEAB   C9        ret          

Label15:
 DEAC   2ACF83    ld   hl, (083CFh) 
 DEAF   ED5F      ld   a, r    
 DEB1   57        ld   d, a    
 DEB2   5E        ld   e, (hl) 
 DEB3   19        add  hl, de  
 DEB4   5F        ld   e, a    
 DEB5   19        add  hl, de  
 DEB6   22CF83    ld   (083CFh), hl 
 DEB9   C9        ret          

Label21:
 DEBA   214093    ld   hl, plotSScreen

Label26:
 DEBD   0EF4      ld   c, 0F4h
 DEBF   3E80      ld   a, 80h
 DEC1   D310      out  (10h), a  
 DEC3   CDE7DE    call Label544
 DEC6   F5        push af      

Label546:
 DEC7   E5        push hl      
 DEC8   79        ld   a, c    
 DEC9   C62C      add  a, 2Ch
 DECB   D310      out  (10h), a  
 DECD   13        inc  de      
 DECE   0640      ld   b, 40h

Label545:
 DED0   7E        ld   a, (hl) 
 DED1   13        inc  de      
 DED2   1B        dec  de      
 DED3   110C00    ld   de, 000Ch
 DED6   7E        ld   a, (hl) 
 DED7   19        add  hl, de  
 DED8   D311      out  (11h), a  
 DEDA   10F4      djnz Label545
 DEDC   E1        pop  hl      
 DEDD   23        inc  hl      
 DEDE   0C        inc  c       
 DEDF   20E6      jr   nz, Label546
 DEE1   F1        pop  af      
 DEE2   D320      out  (20h), a  
 DEE4   D8        ret  c       
 DEE5   FB        ei           
 DEE6   C9        ret          

Label544:
 DEE7   DB02      in   a, (02h)  
 DEE9   17        rla          
 DEEA   9F        sbc  a, a    
 DEEB   2802      jr   z, Label547
 DEED   DB20      in   a, (20h)  

Label547:
 DEEF   47        ld   b, a    
 DEF0   AF        xor  a       
 DEF1   D320      out  (20h), a  
 DEF3   F5        push af      
 DEF4   F1        pop  af      
 DEF5   ED57      ld   a, i    
 DEF7   F3        di           
 DEF8   78        ld   a, b    
 DEF9   E8        ret  pe      
 DEFA   3B        dec  sp      
 DEFB   3B        dec  sp      
 DEFC   F1        pop  af      
 DEFD   B7        or   a       
 DEFE   78        ld   a, b    
 DEFF   C0        ret  nz      
 DF00   37        scf          
 DF01   C9        ret          

Label198:
 DF02   E5        push hl      
 DF03   DDE1      pop  ix      
 DF05   213593    ld   hl, 09335h

Label188:
 DF08   F1        pop  af      
 DF09   D1        pop  de      
 DF0A   C1        pop  bc      
 DF0B   F5        push af      
 DF0C   0607      ld   b, 07h
 DF0E   1600      ld   d, 00h
 DF10   79        ld   a, c    
 DF11   80        add  a, b    
 DF12   380A      jr   c, Label548
 DF14   D667      sub  67h
 DF16   D0        ret  nc      
 DF17   2F        cpl          
 DF18   B8        cp   b       
 DF19   3007      jr   nc, Label549
 DF1B   14        inc  d       
 DF1C   1803      jr   Label550

Label548:
 DF1E   C659      add  a, 59h
 DF20   4F        ld   c, a    

Label550:
 DF21   14        inc  d       

Label549:
 DF22   7B        ld   a, e    
 DF23   80        add  a, b    
 DF24   3809      jr   c, Label551
 DF26   D647      sub  47h
 DF28   D0        ret  nc      
 DF29   2F        cpl          
 DF2A   B8        cp   b       
 DF2B   3008      jr   nc, Label552
 DF2D   1805      jr   Label553

Label551:
 DF2F   DD23      inc  ix      
 DF31   1C        inc  e       
 DF32   20FB      jr   nz, Label551

Label553:
 DF34   47        ld   b, a    

Label552:
 DF35   15        dec  d       
 DF36   2801      jr   z, Label554
 DF38   1C        inc  e       

Label554:
 DF39   D5        push de      
 DF3A   E5        push hl      
 DF3B   1600      ld   d, 00h
 DF3D   62        ld   h, d    
 DF3E   6B        ld   l, e    
 DF3F   29        add  hl, hl  
 DF40   19        add  hl, de  
 DF41   29        add  hl, hl  
 DF42   29        add  hl, hl  
 DF43   59        ld   e, c    
 DF44   7B        ld   a, e    
 DF45   CB3B      srl  e       
 DF47   CB3B      srl  e       
 DF49   CB3B      srl  e       
 DF4B   19        add  hl, de  
 DF4C   D1        pop  de      
 DF4D   19        add  hl, de  
 DF4E   D1        pop  de      
 DF4F   04        inc  b       
 DF50   E607      and  07h
 DF52   2821      jr   z, Label555
 DF54   4F        ld   c, a    

Label559:
 DF55   C5        push bc      
 DF56   41        ld   b, c    
 DF57   DD4E00    ld   c, (ix+00h)
 DF5A   AF        xor  a       

Label556:
 DF5B   CB39      srl  c       
 DF5D   1F        rra          
 DF5E   10FB      djnz Label556
 DF60   15        dec  d       
 DF61   2802      jr   z, Label557
 DF63   B6        or   (hl)    
 DF64   77        ld   (hl), a 

Label557:
 DF65   2B        dec  hl      
 DF66   14        inc  d       
 DF67   2803      jr   z, Label558
 DF69   79        ld   a, c    
 DF6A   B6        or   (hl)    
 DF6B   77        ld   (hl), a 

Label558:
 DF6C   0E0D      ld   c, 0Dh
 DF6E   09        add  hl, bc  
 DF6F   DD23      inc  ix      
 DF71   C1        pop  bc      
 DF72   10E1      djnz Label559
 DF74   C9        ret          

Label555:
 DF75   2B        dec  hl      
 DF76   110C00    ld   de, 000Ch

Label560:
 DF79   DD7E00    ld   a, (ix+00h)
 DF7C   B6        or   (hl)    
 DF7D   77        ld   (hl), a 
 DF7E   DD23      inc  ix      
 DF80   19        add  hl, de  
 DF81   10F6      djnz Label560
 DF83   C9        ret          

Label337:
 DF84   214093    ld   hl, plotSScreen

Label206:
 DF87   010300    ld   bc, 0003h

Label561:
 DF8A   7E        ld   a, (hl) 
 DF8B   2F        cpl          
 DF8C   77        ld   (hl), a 
 DF8D   23        inc  hl      
 DF8E   10FA      djnz Label561
 DF90   0D        dec  c       
 DF91   20F7      jr   nz, Label561
 DF93   C9        ret          

Label85:
 DF94   217298    ld   hl, appBackUpScreen
 DF97   114093    ld   de, plotSScreen
 DF9A   EB        ex   de, hl  
 DF9B   CDE7DE    call Label544
 DF9E   F5        push af      
 DF9F   3E07      ld   a, 07h
 DFA1   D310      out  (10h), a  
 DFA3   3A128A    ld   a, (08A12h)  
 DFA6   1F        rra          
 DFA7   9F        sbc  a, a    
 DFA8   EE55      xor  55h
 DFAA   32128A    ld   (08A12h), a  
 DFAD   4F        ld   c, a    
 DFAE   3E80      ld   a, 80h

Label563:
 DFB0   F5        push af      
 DFB1   D310      out  (10h), a  
 DFB3   E3        ex   (sp), hl
 DFB4   E3        ex   (sp), hl
 DFB5   CB09      rrc  c       
 DFB7   060C      ld   b, 0Ch
 DFB9   3E20      ld   a, 20h
 DFBB   D310      out  (10h), a  
 DFBD   F5        push af      
 DFBE   F1        pop  af      

Label562:
 DFBF   03        inc  bc      
 DFC0   0D        dec  c       
 DFC1   1A        ld   a, (de) 
 DFC2   A1        and  c       
 DFC3   B6        or   (hl)    
 DFC4   13        inc  de      
 DFC5   23        inc  hl      
 DFC6   D311      out  (11h), a  
 DFC8   7E        ld   a, (hl) 
 DFC9   10F4      djnz Label562
 DFCB   F1        pop  af      
 DFCC   3C        inc  a       
 DFCD   CB77      bit  6, a    
 DFCF   28DF      jr   z, Label563
 DFD1   F1        pop  af      
 DFD2   D320      out  (20h), a  
 DFD4   3E05      ld   a, 05h
 DFD6   D310      out  (10h), a  
 DFD8   D8        ret  c       
 DFD9   FB        ei           
 DFDA   C9        ret          

Label212:
 DFDB   EF9247    bcall(_SetXXXXOP2)     
 DFDE   EF5641    bcall(_OP2ToOP1)     
 DFE1   3E05      ld   a, 05h
 DFE3   EFF74B    bcall(_DispOP1A)     
 DFE6   C9        ret          

Label209:
 DFE7   217298    ld   hl, appBackUpScreen
 DFEA   114093    ld   de, plotSScreen
 DFED   CDE7DE    call Label544
 DFF0   F5        push af      
 DFF1   E5        push hl      
 DFF2   3E07      ld   a, 07h
 DFF4   D310      out  (10h), a  
 DFF6   3EB6      ld   a, 0B6h
 DFF8   21128A    ld   hl, 08A12h
 DFFB   BE        cp   (hl)    
 DFFC   2804      jr   z, Label564
 DFFE   3804      jr   c, Label565
 E000   3E6D      ld   a, 6Dh

Label564:
 E002   37        scf          
 E003   17        rla          

Label565:
 E004   17        rla          
 E005   77        ld   (hl), a 
 E006   08        ex   af, af' 
 E007   E1        pop  hl      
 E008   3E80      ld   a, 80h

Label567:
 E00A   D310      out  (10h), a  
 E00C   F5        push af      
 E00D   E3        ex   (sp), hl
 E00E   E3        ex   (sp), hl
 E00F   00        nop          
 E010   3E20      ld   a, 20h
 E012   D310      out  (10h), a  
 E014   060C      ld   b, 0Ch

Label566:
 E016   08        ex   af, af' 
 E017   1F        rra          
 E018   4F        ld   c, a    
 E019   08        ex   af, af' 
 E01A   1A        ld   a, (de) 
 E01B   AE        xor  (hl)    
 E01C   A1        and  c       
 E01D   AE        xor  (hl)    
 E01E   13        inc  de      
 E01F   23        inc  hl      
 E020   D311      out  (11h), a  
 E022   10F2      djnz Label566
 E024   03        inc  bc      
 E025   08        ex   af, af' 
 E026   1F        rra          
 E027   08        ex   af, af' 
 E028   F1        pop  af      
 E029   3C        inc  a       
 E02A   CB77      bit  6, a    
 E02C   28DC      jr   z, Label567
 E02E   3E05      ld   a, 05h
 E030   D310      out  (10h), a  
 E032   F1        pop  af      
 E033   D320      out  (20h), a  
 E035   D8        ret  c       
 E036   FB        ei           
 E037   C9        ret          

Label261:
 E038   7C        ld   a, h    
 E039   AA        xor  d       
 E03A   F5        push af      
 E03B   CB7C      bit  7, h    
 E03D   2806      jr   z, Label568
 E03F   AF        xor  a       
 E040   95        sub  l       
 E041   6F        ld   l, a    
 E042   9F        sbc  a, a    
 E043   94        sub  h       
 E044   67        ld   h, a    

Label568:
 E045   CB7A      bit  7, d    
 E047   2806      jr   z, Label569
 E049   AF        xor  a       
 E04A   93        sub  e       
 E04B   5F        ld   e, a    
 E04C   9F        sbc  a, a    
 E04D   92        sub  d       
 E04E   57        ld   d, a    

Label569:
 E04F   CD5EE0    call Label210
 E052   6C        ld   l, h    
 E053   67        ld   h, a    
 E054   F1        pop  af      
 E055   AC        xor  h       
 E056   F0        ret  p       
 E057   AF        xor  a       
 E058   95        sub  l       
 E059   6F        ld   l, a    
 E05A   9F        sbc  a, a    
 E05B   94        sub  h       
 E05C   67        ld   h, a    
 E05D   C9        ret          

Label210:
 E05E   4C        ld   c, h    
 E05F   7D        ld   a, l    
 E060   210000    ld   hl, 0000h
 E063   0610      ld   b, 10h

Label571:
 E065   29        add  hl, hl  
 E066   17        rla          
 E067   CB11      rl   c       
 E069   3006      jr   nc, Label570
 E06B   19        add  hl, de  
 E06C   CE00      adc  a, 00h
 E06E   3001      jr   nc, Label570
 E070   0C        inc  c       

Label570:
 E071   10F2      djnz Label571
 E073   C9        ret          

Label208:
 E074   DD214093  ld   ix, plotSScreen

Label360:
 E078   D1        pop  de      
 E079   EB        ex   de, hl  
 E07A   C1        pop  bc      
 E07B   43        ld   b, e    
 E07C   D1        pop  de      
 E07D   E3        ex   (sp), hl
 E07E   EB        ex   de, hl  
 E07F   3E60      ld   a, 60h
 E081   93        sub  e       
 E082   D8        ret  c       
 E083   C8        ret  z       
 E084   B9        cp   c       
 E085   3001      jr   nc, Label572
 E087   4F        ld   c, a    

Label572:
 E088   3E40      ld   a, 40h
 E08A   95        sub  l       
 E08B   D8        ret  c       
 E08C   C8        ret  z       
 E08D   B8        cp   b       
 E08E   3001      jr   nc, Label573
 E090   47        ld   b, a    

Label573:
 E091   AF        xor  a       
 E092   B8        cp   b       
 E093   C8        ret  z       
 E094   B9        cp   c       
 E095   C8        ret  z       
 E096   67        ld   h, a    
 E097   57        ld   d, a    
 E098   C5        push bc      
 E099   DDE5      push ix      
 E09B   C1        pop  bc      
 E09C   7D        ld   a, l    
 E09D   87        add  a, a    
 E09E   85        add  a, l    
 E09F   6F        ld   l, a    
 E0A0   29        add  hl, hl  
 E0A1   29        add  hl, hl  
 E0A2   09        add  hl, bc  
 E0A3   7B        ld   a, e    
 E0A4   CB3B      srl  e       
 E0A6   CB3B      srl  e       
 E0A8   CB3B      srl  e       
 E0AA   19        add  hl, de  
 E0AB   E607      and  07h
 E0AD   D1        pop  de      
 E0AE   47        ld   b, a    
 E0AF   83        add  a, e    
 E0B0   D608      sub  08h
 E0B2   1E00      ld   e, 00h
 E0B4   3802      jr   c, Label574
 E0B6   5F        ld   e, a    
 E0B7   AF        xor  a       

Label574:
 E0B8   C608      add  a, 08h
 E0BA   90        sub  b       
 E0BB   0E00      ld   c, 00h

Label575:
 E0BD   37        scf          
 E0BE   CB19      rr   c       
 E0C0   3D        dec  a       
 E0C1   20FA      jr   nz, Label575
 E0C3   79        ld   a, c    
 E0C4   04        inc  b       
 E0C5   07        rlca         

Label576:
 E0C6   0F        rrca         
 E0C7   10FD      djnz Label576

Label578:
 E0C9   E5        push hl      
 E0CA   42        ld   b, d    
 E0CB   4F        ld   c, a    
 E0CC   D5        push de      
 E0CD   110C00    ld   de, 000Ch

Label577:
 E0D0   79        ld   a, c    
 E0D1   B6        or   (hl)    
 E0D2   77        ld   (hl), a 
 E0D3   19        add  hl, de  
 E0D4   10FA      djnz Label577
 E0D6   D1        pop  de      
 E0D7   E1        pop  hl      
 E0D8   23        inc  hl      
 E0D9   7B        ld   a, e    
 E0DA   B7        or   a       
 E0DB   C8        ret  z       
 E0DC   D608      sub  08h
 E0DE   58        ld   e, b    
 E0DF   38D7      jr   c, Label574
 E0E1   5F        ld   e, a    
 E0E2   3EFF      ld   a, 0FFh
 E0E4   18E3      jr   Label578

Label361:
 E0E6   DD214093  ld   ix, plotSScreen

Label362:
 E0EA   D1        pop  de      
 E0EB   EB        ex   de, hl  
 E0EC   C1        pop  bc      
 E0ED   43        ld   b, e    
 E0EE   D1        pop  de      
 E0EF   E3        ex   (sp), hl
 E0F0   EB        ex   de, hl  
 E0F1   3E60      ld   a, 60h
 E0F3   93        sub  e       
 E0F4   D8        ret  c       
 E0F5   C8        ret  z       
 E0F6   B9        cp   c       
 E0F7   3001      jr   nc, Label579
 E0F9   4F        ld   c, a    

Label579:
 E0FA   3E40      ld   a, 40h
 E0FC   95        sub  l       
 E0FD   D8        ret  c       
 E0FE   C8        ret  z       
 E0FF   B8        cp   b       
 E100   3001      jr   nc, Label580
 E102   47        ld   b, a    

Label580:
 E103   AF        xor  a       
 E104   B8        cp   b       
 E105   C8        ret  z       
 E106   B9        cp   c       
 E107   C8        ret  z       
 E108   67        ld   h, a    
 E109   57        ld   d, a    
 E10A   C5        push bc      
 E10B   DDE5      push ix      
 E10D   C1        pop  bc      
 E10E   7D        ld   a, l    
 E10F   87        add  a, a    
 E110   85        add  a, l    
 E111   6F        ld   l, a    
 E112   29        add  hl, hl  
 E113   29        add  hl, hl  
 E114   09        add  hl, bc  
 E115   7B        ld   a, e    
 E116   CB3B      srl  e       
 E118   CB3B      srl  e       
 E11A   CB3B      srl  e       
 E11C   19        add  hl, de  
 E11D   E607      and  07h
 E11F   D1        pop  de      
 E120   47        ld   b, a    
 E121   83        add  a, e    
 E122   D608      sub  08h
 E124   1E00      ld   e, 00h
 E126   3802      jr   c, Label581
 E128   5F        ld   e, a    
 E129   AF        xor  a       

Label581:
 E12A   C608      add  a, 08h
 E12C   90        sub  b       
 E12D   0E00      ld   c, 00h

Label582:
 E12F   37        scf          
 E130   CB19      rr   c       
 E132   3D        dec  a       
 E133   20FA      jr   nz, Label582
 E135   79        ld   a, c    
 E136   04        inc  b       
 E137   07        rlca         

Label583:
 E138   0F        rrca         
 E139   10FD      djnz Label583

Label585:
 E13B   E5        push hl      
 E13C   42        ld   b, d    
 E13D   4F        ld   c, a    
 E13E   D5        push de      
 E13F   110C00    ld   de, 000Ch

Label584:
 E142   79        ld   a, c    
 E143   AE        xor  (hl)    
 E144   77        ld   (hl), a 
 E145   19        add  hl, de  
 E146   10FA      djnz Label584
 E148   D1        pop  de      
 E149   E1        pop  hl      
 E14A   23        inc  hl      
 E14B   7B        ld   a, e    
 E14C   B7        or   a       
 E14D   C8        ret  z       
 E14E   D608      sub  08h
 E150   58        ld   e, b    
 E151   38D7      jr   c, Label581
 E153   5F        ld   e, a    
 E154   3EFF      ld   a, 0FFh
 E156   18E3      jr   Label585

Str2:

Label535:
 E158             .db  0F3h, 0DBh, 06h, 0F5h, 0DBh, 02h, 17h, 0DAh, 86h, 0E1h, 0CDh
 E163             .db  "X", 0E1h
 E165             .db  "!s", 0E1h, 11h, 0A6h, 82h, 01h, 13h, 00h, 0EDh, 0B0h, 0C3h, 0A6h, 82h, 0CDh
 E174             .db  "X", 0E1h
 E176             .db  ">", 07h, 11h, 0B0h, 82h, 0D5h, 0E9h, 0EFh
 E17E             .db  "<O", 0F1h, 0D3h, 06h, 0FBh, 0E1h, 0C9h
 E186             .db  ">", 80h, 0D3h, 06h
 E18A             .db  "!", 98h, 0E1h, 11h, 0A6h, 82h, 01h, 1Ah, 00h, 0EDh, 0B0h, 0C3h, 0A6h, 82h
 E198             .db  "!", 00h
 E19A             .db  "@", 11h, 00h, 0C0h
 E19E             .db  "DM", 1Ah, 0EDh, 0A0h
 E1A3             .db  "+w#", 0EAh, 0AEh, 82h, 0AFh, 0D3h, 05h, 0F1h, 0D3h, 06h, 0FBh, 0E1h, 0C9h

Str72:
 E1B2             .db  7Eh, 0BFh, 0BFh, 99h, 0AAh, 0A9h, 0FBh, 7Eh

Str73:
 E1BA             .db  7Eh, 0BFh, 0B5h, 0B5h, 0B5h, 0BBh, 0C7h, 7Eh, 0FCh, 84h, 0B4h, 0B4h, 84h, 0FCh, 00h, 00h, 0FCh, 0CCh, 84h, 84h, 0CCh, 0FCh, 00h, 00h, 0F8h, 0FCh, 0B4h, 0FCh, 7Ch, 0F8h
 E1D8             .db  0ACh, 00h, 0ACh
 E1DB             .db  "x", 0F8h, 0CCh, 0B4h, 0FCh, 0FCh, 00h
 E1E2             .db  "x", 0D4h, 0ACh, 0D4h, 0ACh, 0FCh, 00h, 00h
 E1EA             .db  "x", 0FCh, 0FCh, 0FCh, 0FCh, 0FCh, 00h, 00h

Str146:
 E1F2             .db  "ppp", 0F8h, 0A8h
 E1F7             .db  "p", 0D8h, 00h, 00h
 E1FB             .db  "x", 0CCh, 84h, 0CCh
 E1FF             .db  "x", 00h, 00h
 E202             .db  "x", 0B4h, 0FCh, 0FCh, 0B4h
 E207             .db  "x", 00h, 00h
 E20A             .db  "8(d", 94h, 90h
 E20F             .db  "`", 00h, 00h, 7Ch
 E213             .db  "((DDD8", 00h, 00h, 14h
 E21C             .db  "(D", 0A8h, 0D0h
 E220             .db  "`", 00h, 00h
 E223             .db  "l", 10h
 E225             .db  "(", 10h
 E227             .db  "l", 00h, 00h, 00h, 00h, 00h, 10h
 E22E             .db  "8", 1Ch, 0Ch, 00h
 E232             .db  "x", 0ECh, 0A4h, 94h, 0DCh
 E237             .db  "x", 00h, 00h, 00h, 00h
 E23C             .db  "0x0", 00h, 00h, 00h, 00h
 E243             .db  "H", 00h, 00h
 E246             .db  "H", 00h, 00h, 00h, 00h, 00h, 00h
 E24D             .db  "``", 00h, 00h, 00h, 00h, 00h, 00h
 E255             .db  "888", 00h, 00h, 00h, 00h, 10h
 E25D             .db  "8", 10h, 00h, 00h, 00h, 00h, 00h
 E264             .db  "(", 10h
 E266             .db  "(", 00h, 00h, 00h, 0A0h
 E26B             .db  "@", 0A0h
 E26D             .db  "`", 00h, 00h, 00h, 00h, 00h, 10h
 E274             .db  "Xh ", 00h, 00h, 00h
 E27A             .db  "(88", 10h
 E27E             .db  "8Tl", 00h
 E282             .db  "pPp", 88h, 0F8h
 E287             .db  "P", 0D8h, 00h
 E28A             .db  " pp pp", 0D8h, 00h, 7Ch
 E293             .db  "TT8", 7Ch
 E297             .db  "(l", 00h
 E29A             .db  "x", 0CCh, 0B4h, 0B4h, 0CCh
 E29F             .db  "x0", 00h
 E2A2             .db  "(8", 10h
 E2A5             .db  "8T(l", 00h
 E2AA             .db  "p", 0A8h, 0F8h
 E2AD             .db  "pP", 0A8h, 0A8h, 00h, 00h, 00h, 0B4h, 0B4h
 E2B6             .db  "xxH", 00h, 84h, 84h, 00h, 0B4h, 0B4h
 E2BF             .db  "x", 0CCh, 00h

Str147:
 E2C2             .db  00h
 E2C3             .db  "P", 00h, 00h, 00h, 00h, 00h, 00h
 E2CA             .db  "8", 7Ch
 E2CC             .db  "T8", 00h
 E2CF             .db  "8", 00h, 00h, 00h, 00h
 E2D4             .db  "8T", 7Ch
 E2D7             .db  "TD", 00h, 0CCh
 E2DB             .db  "x", 0B4h
 E2DD             .db  " 0", 94h, 0A4h, 00h
 E2E2             .db  "(88", 10h
 E2E6             .db  "8Tl", 00h, 00h
 E2EB             .db  " ", 00h
 E2ED             .db  "p", 00h, 88h, 00h, 00h
 E2F2             .db  "P", 00h, 00h, 0D8h, 88h, 88h, 00h, 00h, 00h
 E2FB             .db  "((D", 00h, 00h, 00h, 00h, 00h
 E303             .db  "0HH0", 00h, 00h
 E309             .db  "TDD(D(T", 00h, 00h, 00h, 00h, 00h, 00h, 0A8h
 E317             .db  "PP", 00h
 E31A             .db  "T", 0FCh
 E31C             .db  "H", 00h, 84h, 00h, 00h, 00h
 E322             .db  "0xx", 00h, 00h, 00h, 00h, 00h

Str148:

Label622:
 E32A             .db  "0(x", 0FCh, 0F8h, 7Ch
 E330             .db  "8", 00h, 82h, 02h, 80h, 82h, 7Ch, 00h, 00h, 00h, 00h, 00h, 00h
 E33D             .db  "(", 00h
 E33F             .db  "(", 00h, 00h, 00h, 00h, 00h, 94h, 84h
 E347             .db  " ", 10h, 00h

Str108:
 E34A             .db  " \", 84h, 88h
 E34E             .db  "HP0", 00h

Str109:

Label632:
 E352             .db  18h, 00h
 E354             .db  "8`0 ", 00h, 00h

Str71:
 E35A             .db  " ", 84h, 10h
 E35D             .db  "@", 08h
 E35F             .db  "@", 10h, 00h

Str144:

Label645:
 E362             .db  00h
 E363             .db  "l", 92h, 82h, 82h
 E367             .db  "D(", 10h

Str145:
 E36A             .db  00h, 00h
 E36C             .db  "l", 7Ch, 7Ch
 E36F             .db  "8", 10h, 00h

Str74:
 E372             .db  ">", 7Fh
 E374             .db  "c", 7Fh
 E376             .db  "cww", 7Fh

Str24:

Label646:
 E37A             .db  0FFh, 0FFh, 0FFh, 0FFh, 0FFh, 0FFh, 0FFh, 0FFh, 0FFh, 0FFh, 0FFh, 0FFh, 0FFh, 0FFh, 0FFh, 0FFh, 0FFh, 0FFh, 0FFh, 0FFh, 0FFh, 0FFh, 0FFh, 0FFh, 0F8h, 1Fh, 0FFh, 0FFh, 0FFh, 0F9h
 E398             .db  0FFh, 0FFh, 0FFh, 0FFh, 00h, 1Fh, 0E0h, 0Fh, 0FFh, 0FFh, 0FFh, 0FCh, 0FFh, 0FFh, 0FFh, 0FFh, 00h, 1Fh, 0E0h, 07h, 1Fh, 0FFh, 0FFh, 0FCh, 0FFh, 0FFh, 0FFh, 0FFh, 00h, 1Fh
 E3B6             .db  0E0h, 0C6h, 1Fh, 0FFh, 0FFh, 0FCh, 0FFh, 0FFh, 0FFh, 0FFh, 00h, 1Fh, 83h, 0FFh, 1Fh, 0FFh, 0FFh, 0FCh, 0FFh, 0FFh, 0FFh, 0FFh, 00h, 1Fh, 83h, 0FEh, 1Fh, 0FFh, 0FFh, 0FCh
 E3D4             .db  0FFh, 0FFh, 0FFh, 0CFh, 00h, 1Fh, 87h, 0FEh, 1Fh, 0FFh, 0FFh, 0FCh, 0FFh, 0FFh, 7Fh, 07h, 00h, 1Fh, 0Fh, 0FEh, 1Fh, 0FFh, 0FFh, 0FCh, 07h, 86h, 02h, 07h, 00h, 1Fh
 E3F2             .db  8Fh, 0FFh, 01h, 0F0h
 E3F6             .db  "g", 0FCh, 03h, 06h, 02h, 7Fh, 0Ah, 1Fh, 83h, 0FFh, 00h, 0C0h
 E402             .db  "p", 04h, 7Bh
 E405             .db  "r2", 7Fh, 0Eh, 1Fh, 83h, 0FEh, 0Ch, 0C0h, 22h
 E40F             .db  "D", 0FBh
 E411             .db  "s;", 1Fh, 0Eh, 1Fh, 0C3h
 E417             .db  "%", 1Ch, 0DEh
 E41A             .db  "&d", 0FBh, 03h
 E41E             .db  "?", 0Fh, 04h, 1Fh, 0C0h, 04h, 1Ch
 E425             .db  "O&d3??", 8Fh, 0Eh, 1Fh, 0E0h, 0Fh, 1Ch
 E431             .db  "@&f", 03h
 E435             .db  "??", 8Fh, 15h, 1Fh, 0F8h, 0Fh, 0FCh, 0C0h
 E43E             .db  "&f", 0Fh, 03h
 E442             .db  "<", 0Fh, 1Bh, 1Fh, 0FFh, 0FFh, 0FCh, 0E1h
 E44A             .db  "?", 0E7h, 0FFh, 83h, 0FEh, 1Fh, 0FFh, 0FFh, 0FFh, 0FFh, 0FDh, 0FFh, 0FFh, 0EFh, 0FFh, 0F3h, 0FFh, 0FEh, 1Eh, 1Fh, 0FFh, 0FFh, 0FEh, 0FFh, 0FFh, 0EFh, 0FFh, 0FBh, 0FFh, 0FEh
 E468             .db  1Ch, 0Fh, 0FFh, 0FFh, 0FFh, 0FFh, 0FFh, 0F7h, 0FFh, 0FBh, 0FFh, 0FCh, 1Ch, 0Fh, 0FFh, 0FFh, 0FDh, 0FFh, 0FFh, 0EFh, 0FFh, 0FBh, 0FFh, 0FCh
 E480             .db  "8", 0Fh, 0FFh, 0FFh, 0F9h, 0FFh, 0FFh, 0EFh, 0FFh, 0FBh, 0FFh, 0F8h
 E48C             .db  "p", 07h, 0FFh, 0FFh, 0FDh, 0FFh, 0FFh, 0EFh, 0FFh, 0FBh, 0FFh, 0F8h, 10h, 07h, 0FFh, 0FFh, 0FFh, 0FFh, 0FFh, 0EFh, 0FFh, 0FFh, 0FFh, 0F0h, 00h, 07h, 0FFh, 0FFh, 0FFh, 0FFh
 E4AA             .db  0FFh, 0FFh, 0FFh, 0FFh, 0FFh, 0F0h, 00h, 03h, 0FFh, 0FFh, 0FFh, 0FFh, 0FFh, 0FFh, 0FFh, 0FFh, 0FFh, 0E0h, 00h, 03h, 0FFh, 0FFh, 0FFh, 0FFh, 0FFh, 0FFh, 0FFh, 0FFh, 0FFh, 0E0h
 E4C8             .db  00h, 01h, 0FFh, 0FFh, 0FFh, 0FFh, 0FFh, 0FFh, 0FFh, 7Fh, 0FFh, 0C0h, 00h, 01h, 0FFh, 0FFh, 0FFh, 0FFh, 0FFh, 0EEh, 0FFh, 7Fh, 0FFh, 0C0h, 00h, 01h, 0FBh, 0FCh
 E4E4             .db  "G", 0FFh, 0FFh, 0EAh, 0FFh, 7Fh, 0FFh, 80h, 00h, 8Ah, 0F5h, 85h
 E4F0             .db  "V", 0B7h
 E4F2             .db  "+n", 0F7h
 E4F5             .db  "?", 0FFh, 80h, 00h, 95h, 0F1h, 0ECh
 E4FC             .db  "Vj", 0AAh, 0AAh, 0ABh
 E501             .db  "U", 0FFh, 01h
 E504             .db  " ", 16h, 0F5h, 0DDh
 E508             .db  "V", 0EAh, 2Ah
 E50B             .db  "jgU", 0FFh, 12h, 19h
 E511             .db  "C", 0F5h, 84h
 E514             .db  "F", 0F7h, 0A3h, 2Ah, 0B3h
 E519             .db  "9", 0FEh, 00h, 80h
 E51D             .db  "_", 0FFh, 0FFh, 0FFh, 0FEh, 7Fh, 0FFh, 0FFh, 0FDh, 0FEh
 E527             .db  "Io", 0FFh, 0FFh, 0FFh, 0FFh, 0FFh, 0FFh, 0FFh, 0FFh, 0F3h, 0FCh, 02h, 93h, 0FFh, 0FFh, 0FFh, 0FFh, 0FFh, 0FFh, 0FFh, 0FFh, 0FFh, 0FEh, 2Ah, 0FFh, 0FFh, 0FFh, 0FFh, 0FFh
 E545             .db  0FFh, 0FFh, 0FFh, 0FFh, 0FFh, 0F9h, 7Bh, 0FFh, 0FFh, 0FFh, 0FFh, 0FFh, 0F9h, 0FFh, 0FEh, 7Fh, 0FBh, 0F5h, 0FFh, 0FFh, 0FFh, 0FFh, 0FFh, 0FFh, 0FAh, 0FFh, 0FEh, 0BFh, 0FBh, 0FFh
 E563             .db  0FFh, 0FFh, 0FFh, 0FFh, 0FFh, 0FFh, 0F9h, 0ADh, 0CEh
 E56C             .db  "v", 0B3h, 0FFh, 0FFh, 0FFh, 0FFh, 0FFh, 0FFh, 0FFh, 0FAh, 0AAh, 0D6h, 0AAh, 0ABh, 0FFh, 0FFh, 0FFh, 0FFh, 0FFh, 0FFh, 0FFh, 0FAh, 0CAh, 0D6h, 0ABh
 E585             .db  "+", 0FFh, 0FFh, 0FFh, 0FFh, 0FFh, 0FFh, 0FFh, 0FAh, 0EDh
 E58F             .db  "Vw", 0B3h, 0FFh, 0FFh, 0FFh, 0FFh, 0FFh, 0FFh, 0FFh, 0FFh, 9Fh, 0FFh, 0FEh, 7Fh, 0FFh, 0FFh, 0FFh, 0FFh, 0FFh, 0FFh, 0FFh, 0FFh, 0FFh, 0FFh, 0FFh, 0FFh, 0FFh, 0FFh, 0FFh
 E5AD             .db  0FFh, 0FFh, 0FFh, 0FFh, 0FFh, 0FFh, 0FFh, 0FFh, 0FFh, 0FFh, 0FFh, 0FFh, 0FFh, 0FFh, 0FFh, 0FFh, 0FFh, 0FFh, 0FFh, 0FFh, 0FFh, 0FFh, 0FFh, 0FFh, 0FFh, 0FFh, 0FFh, 0FFh, 0FFh, 0FFh
 E5CB             .db  0FFh, 0FFh, 0FFh, 0FFh, 0FFh, 0FFh, 0FFh, 0FFh, 0FFh, 0FFh, 0FFh, 0FFh, 0FFh, 0FFh, 0FFh, 0FFh, 0FFh, 0FFh, 0FFh, 0FFh, 0FFh, 0FFh, 0FFh, 0FFh, 0FFh, 0FFh, 0FFh, 0FFh, 0FFh, 0FFh
 E5E9             .db  0FFh, 0FFh, 0FFh, 0FFh, 0FFh, 0FFh, 0FFh, 0FFh, 0FFh, 0FFh, 0FFh, 0FFh, 0FFh, 0FFh, 0FFh, 0FFh, 0FFh, 0FFh, 0FFh, 0FFh, 0FFh, 0FFh, 0FFh, 0FFh, 0FFh, 0FFh, 0FFh, 0FFh, 0FFh, 0FFh
 E607             .db  0FFh, 0FFh, 0FFh, 0FFh, 0FFh, 0FFh, 0FFh, 0FEh, 7Fh, 0FFh, 0CDh, 0B9h, 0ADh, 9Dh, 0FEh, 0FFh, 0EFh, 0FFh, 0FFh, 0FEh, 0ABh
 E61C             .db  "d", 0DAh, 0BAh, 0AAh, 0D8h, 0DEh
 E622             .db  "w9", 0FFh, 0FFh, 0FEh
 E627             .db  "f", 0ADh, 0D8h, 0B9h, 88h, 0DDh, 0AEh, 0AAh, 0AAh, 0FFh, 0FFh, 0FEh, 0EEh
 E634             .db  "v", 0DAh, 0BBh, 0AAh, 0DDh, 0AEh, 0A6h, 2Ah, 0FFh, 0FFh, 0FEh, 0EFh, 24h, 0CAh, 8Bh, 0AAh, 9Eh, 0DEh
 E646             .db  "s", 0AAh, 0AAh, 0FFh, 0FFh, 0FFh, 0FFh, 0FFh, 0FFh, 0FFh, 0FFh, 0FFh, 0FEh, 7Fh, 0FFh, 0FFh, 0FFh, 0FFh, 0FFh, 0FFh, 0FFh, 0FFh, 0FFh, 0FFh, 0FFh, 0FFh, 0FFh, 0FFh, 0FFh, 0FFh
 E664             .db  0FFh, 0FFh, 0FFh, 0FFh, 0FFh, 0FFh, 0FFh, 0FFh, 0FFh, 0FFh, 0FFh, 0FFh, 0FFh, 0FFh, 0FFh, 0FFh, 0FFh, 0FFh, 0FFh, 0FFh, 0FFh, 0FFh

Str25:
 E67A             .db  "In your last breath,", 00h

Str26:
 E68F             .db  "frantic swarms of the", 00h

Str27:
 E6A5             .db  "macabre and grotesque", 00h

Str28:
 E6BB             .db  "bear down upon you.", 00h

Str29:
 E6CF             .db  "You will see no mercy...", 00h

Str11:
 E6E8             .db  "Press ", 0C1h
 E6EF             .db  "ALPHA] to continue...", 00h

Str75:
 E705             .db  "                              "
 E723             .db  "                              "
 E741             .db  "                      ", 00h

Str76:
 E758             .db  "Ouch! A Wall!", 00h

Str81:
 E766             .db  "You enter room ", 00h

Str82:

Label711:
 E776             .db  "You locked the door...", 00h

Str83:
 E78D             .db  "The demon strikes!", 00h

Str84:
 E7A0             .db  "You attack!", 00h

Str85:
 E7AC             .db  "You grow stronger...", 00h

Str86:
 E7C1             .db  "Darkness?!", 00h

Str87:
 E7CC             .db  "You got a medkit.", 00h

Str88:
 E7DE             .db  "You got a holybomb.", 00h

Str89:
 E7F2             .db  "You got a strength boost.", 00h

Str90:
 E80C             .db  "You got a bezerker stim.", 00h

Str91:
 E825             .db  "You got a teleporter.", 00h

Str92:
 E83B             .db  "You got a flare.", 00h

Str94:
 E84C             .db  "The container opens.", 00h

Str93:
 E861             .db  "You kick the container.", 00h

Str95:

Label731:
 E879             .db  "You slay the demon...", 00h

Str96:

Label734:
 E88F             .db  "Your inventory is full...", 00h

Str97:
 E8A9             .db  "You got some speed...", 00h

Str98:
 E8BF             .db  "Toxic gas!!!", 00h

Str64:
 E8CC             .db  "CONGRATULATIONS!", 00h

Str51:
 E8DD             .db  "THANKS FOR PLAYING!", 00h

Str52:

Label744:
 E8F1             .db  "Special thanks to:", 00h

Str6:
 E904             .db  "You were happy.", 00h

Str7:
 E914             .db  "You loved your family.", 00h

Str8:

Label753:
 E92B             .db  "Enviable job.", 00h

Str9:

Label754:
 E939             .db  "Nice home.", 00h

Str10:
 E944             .db  "Fun friends...", 00h

Str12:
 E953             .db  "But, you started to", 00h

Str13:
 E967             .db  "hear things. Warnings.", 00h

Str14:
 E97E             .db  "Hell was on its way.", 00h

Str15:
 E993             .db  "They locked you away.", 00h

Str16:
 E9A9             .db  "A padded chamber.", 00h

Str17:
 E9BB             .db  27h
 E9BC             .db  "Asylum.", 27h, 00h

Str18:
 E9C5             .db  "They said you were ill...", 00h

Str19:
 E9DF             .db  "...until it happened...", 00h

Str20:

Label770:
 E9F7             .db  "In your cell,", 00h

Str21:

Label773:
 EA05             .db  "you hear screams as", 00h

Str22:

Label774:
 EA19             .db  "the warnings come true...", 00h

Str23:
 EA33             .db  "The end of all...", 00h

Str30:
 EA45             .db  "Press ", 0C1h
 EA4C             .db  "ALPHA] to start over...", 00h

Str31:
 EA64             .db  "You clasp your hands", 00h

Str32:
 EA79             .db  "together, bringing them", 00h

Str33:
 EA91             .db  "down in a final blow", 00h

Str34:
 EAA6             .db  "upon the crown of the ", 00h

Str35:

Label809:
 EABD             .db  "almighty beast.", 00h

Str36:
 EACD             .db  "Bone and horn crackle", 00h

Str37:
 EAE3             .db  "while a pool of black", 00h

Str38:
 EAF9             .db  "blood spreads on the floor.", 00h

Str39:
 EB15             .db  "You inhale deeply.", 00h

Str40:
 EB28             .db  "You exhale deeply.", 00h

Str41:
 EB3B             .db  "The room fills with demons", 00h

Str42:

Label816:
 EB56             .db  "of all forms.", 00h

Str43:
 EB64             .db  "You fall to your knees.", 00h

Str44:
 EB7C             .db  "The odds are too great.", 00h

Str45:
 EB94             .db  "Everything fades...", 00h

Str46:
 EBA8             .db  "The physician explains.", 00h

Str47:
 EBC0             .db  "A schizophrenic episode.", 00h

Str48:
 EBD9             .db  27h
 EBDA             .db  "You caused quite the scene.", 27h, 00h

Str49:
 EBF7             .db  "Heaven & hell are", 00h

Str50:
 EC09             .db  "but what we perceive.", 00h

Str53:
 EC1F             .db  "the ticalc.org staff", 00h

Str54:
 EC34             .db  "&", 00h

Str55:

Label842:
 EC36             .db  "the ticalc.org users!", 00h

Str56:
 EC4C             .db  "DJ Omnimaga", 00h

Str57:
 EC58             .db  "Builderboy", 00h

Str58:

Label846:
 EC63             .db  "Xeda Elnara", 00h

Str59:
 EC6F             .db  "Matrefeytontias", 00h

Str60:
 EC7F             .db  "Omnimaga.org", 00h

Str61:
 EC8C             .db  "Cemetech.net", 00h

Str62:
 EC99             .db  "Roguelike Radio", 00h

Str63:
 ECA9             .db  "...and you!", 00h

Str65:
 ECB5             .db  "You locked ZERO doors! WOW!!!", 00h

Str66:
 ECD3             .db  "You should try locking ", 00h

Str67:

Label866:
 ECEB             .db  "all of the doors... :)", 00h

Str68:
 ED02             .db  "You locked all of the doors!", 00h

Str69:
 ED1F             .db  "Now try locking NONE", 00h

Str70:
 ED34             .db  "of the doors!  :D", 00h

Str77:
 ED46             .db  "Hell hath no fury...", 00h

Str78:

Label869:
 ED5B             .db  "The world is changing...", 00h

Str79:
 ED74             .db  "The world begins to swirl...", 00h

Str80:
 ED91             .db  "I cannot trust my eyes...", 00h

Str99:
 EDAB             .db  "Empty...", 00h

Str100:

Label880:
 EDB4             .db  "Medkit...", 00h

Str101:
 EDBE             .db  "Holybomb...", 00h

Str102:
 EDCA             .db  "Strength up...", 00h

Str103:
 EDD9             .db  "Bezerker...", 00h

Str104:
 EDE5             .db  "Teleporter...", 00h

Str105:
 EDF3             .db  "Flare...", 00h

Str106:

Label889:
 EDFC             .db  "Speed...", 00h

Str107:
 EE05             .db  0FEh, 0FDh, 0FBh, 0F7h, 0EFh, 0DFh, 0BDh, 7Fh

Str110:
 EE0D             .db  "You feel an immense", 00h

Str111:
 EE21             .db  "pressure in your head.", 00h

Str112:
 EE38             .db  "Everything is starting", 00h

Str113:
 EE4F             .db  "to change! Evil forces", 00h

Str114:
 EE66             .db  "are growing stronger...", 00h

Str115:
 EE7E             .db  "As hell further merges", 00h

Str116:
 EE95             .db  "with earth, the walls", 00h

Str117:
 EEAB             .db  "crawl with demonic murals.", 00h

Str118:

Label903:
 EEC6             .db  "Do not trust your senses --", 00h

Str119:
 EEE2             .db  "the world swirls with evil!", 00h

Str120:
 EEFE             .db  "As you delve deeper,", 00h

Str121:
 EF13             .db  "an evil power seeks to", 00h

Str122:
 EF2A             .db  "slow your progress. Your", 00h

Str123:
 EF43             .db  "perceptions mislead you!", 00h

Str124:
 EF5C             .db  "Stay wary...", 00h

Str125:
 EF69             .db  "You hear a deep growl as", 00h

Str126:
 EF82             .db  "Satan himself appears", 00h

Str127:
 EF98             .db  "before you. He bellows", 00h

Str128:
 EFAF             .db  27h
 EFB0             .db  "There is no escape!", 00h

Str129:
 EFC4             .db  "You must battle!", 27h, 00h

Str130:

Label935:
 EFD6             .db  "Imp", 00h

Str131:
 EFDA             .db  "Bulky Demon", 00h

Str132:
 EFE6             .db  "Reaper", 00h

Str133:
 EFED             .db  27h
 EFEE             .db  "roid Droid", 00h

Str134:
 EFF9             .db  "Eyeball", 00h

Str135:
 F001             .db  "Broccoli Rob", 00h

Str136:
 F00E             .db  "Squiddly!", 00h

Str137:
 F018             .db  "Fire Fatty", 00h

Str138:
 F023             .db  "Everybody walk the", 00h

Str139:

Label945:
 F036             .db  "Minotaur", 00h

Str140:
 F03F             .db  "Spooky Pete :", 7Dh, 00h

Str141:
 F04E             .db  "The Vile", 00h

Str142:
 F057             .db  "Minion", 00h

Str143:
 F05E             .db  "Satan", 00h

Str149:

Label950:
 F064             .db  "Sometimes, love", 00h

Str150:
 F074             .db  "can be SPOOKY :", 7Dh, 00h, 0C9h
 F086   

.end
end
